
NixieTubeClock.elf:     file format elf32-littlearm

Sections:
Idx Name          Size      VMA       LMA       File off  Algn
  0 .isr_vector   000000c0  08000000  08000000  00001000  2**0
                  CONTENTS, ALLOC, LOAD, READONLY, DATA
  1 .text         000027e0  080000c0  080000c0  000010c0  2**2
                  CONTENTS, ALLOC, LOAD, READONLY, CODE
  2 .rodata       0000006c  080028a0  080028a0  000038a0  2**2
                  CONTENTS, ALLOC, LOAD, READONLY, DATA
  3 .ARM.extab    00000000  0800290c  0800290c  00004020  2**0
                  CONTENTS
  4 .ARM          00000008  0800290c  0800290c  0000390c  2**2
                  CONTENTS, ALLOC, LOAD, READONLY, DATA
  5 .preinit_array 00000000  08002914  08002914  00004020  2**0
                  CONTENTS, ALLOC, LOAD, DATA
  6 .init_array   00000004  08002914  08002914  00003914  2**2
                  CONTENTS, ALLOC, LOAD, DATA
  7 .fini_array   00000004  08002918  08002918  00003918  2**2
                  CONTENTS, ALLOC, LOAD, DATA
  8 .data         00000020  20000000  0800291c  00004000  2**2
                  CONTENTS, ALLOC, LOAD, DATA
  9 .bss          000001c4  20000020  0800293c  00004020  2**2
                  ALLOC
 10 ._user_heap_stack 00000604  200001e4  0800293c  000041e4  2**0
                  ALLOC
 11 .ARM.attributes 00000028  00000000  00000000  00004020  2**0
                  CONTENTS, READONLY
 12 .debug_info   00011c04  00000000  00000000  00004048  2**0
                  CONTENTS, READONLY, DEBUGGING, OCTETS
 13 .debug_abbrev 000021dc  00000000  00000000  00015c4c  2**0
                  CONTENTS, READONLY, DEBUGGING, OCTETS
 14 .debug_loclists 00007822  00000000  00000000  00017e28  2**0
                  CONTENTS, READONLY, DEBUGGING, OCTETS
 15 .debug_aranges 00000be0  00000000  00000000  0001f650  2**3
                  CONTENTS, READONLY, DEBUGGING, OCTETS
 16 .debug_rnglists 00000919  00000000  00000000  00020230  2**0
                  CONTENTS, READONLY, DEBUGGING, OCTETS
 17 .debug_macro  000127fa  00000000  00000000  00020b49  2**0
                  CONTENTS, READONLY, DEBUGGING, OCTETS
 18 .debug_line   0001403e  00000000  00000000  00033343  2**0
                  CONTENTS, READONLY, DEBUGGING, OCTETS
 19 .debug_str    0006e5d2  00000000  00000000  00047381  2**0
                  CONTENTS, READONLY, DEBUGGING, OCTETS
 20 .comment      00000043  00000000  00000000  000b5953  2**0
                  CONTENTS, READONLY
 21 .debug_frame  00002088  00000000  00000000  000b5998  2**2
                  CONTENTS, READONLY, DEBUGGING, OCTETS
 22 .debug_line_str 00000058  00000000  00000000  000b7a20  2**0
                  CONTENTS, READONLY, DEBUGGING, OCTETS

Disassembly of section .text:

080000c0 <__do_global_dtors_aux>:
 80000c0:	b510      	push	{r4, lr}
 80000c2:	4c06      	ldr	r4, [pc, #24]	@ (80000dc <__do_global_dtors_aux+0x1c>)
 80000c4:	7823      	ldrb	r3, [r4, #0]
 80000c6:	2b00      	cmp	r3, #0
 80000c8:	d107      	bne.n	80000da <__do_global_dtors_aux+0x1a>
 80000ca:	4b05      	ldr	r3, [pc, #20]	@ (80000e0 <__do_global_dtors_aux+0x20>)
 80000cc:	2b00      	cmp	r3, #0
 80000ce:	d002      	beq.n	80000d6 <__do_global_dtors_aux+0x16>
 80000d0:	4804      	ldr	r0, [pc, #16]	@ (80000e4 <__do_global_dtors_aux+0x24>)
 80000d2:	e000      	b.n	80000d6 <__do_global_dtors_aux+0x16>
 80000d4:	bf00      	nop
 80000d6:	2301      	movs	r3, #1
 80000d8:	7023      	strb	r3, [r4, #0]
 80000da:	bd10      	pop	{r4, pc}
 80000dc:	20000020 	.word	0x20000020
 80000e0:	00000000 	.word	0x00000000
 80000e4:	08002888 	.word	0x08002888

080000e8 <frame_dummy>:
 80000e8:	4b04      	ldr	r3, [pc, #16]	@ (80000fc <frame_dummy+0x14>)
 80000ea:	b510      	push	{r4, lr}
 80000ec:	2b00      	cmp	r3, #0
 80000ee:	d003      	beq.n	80000f8 <frame_dummy+0x10>
 80000f0:	4903      	ldr	r1, [pc, #12]	@ (8000100 <frame_dummy+0x18>)
 80000f2:	4804      	ldr	r0, [pc, #16]	@ (8000104 <frame_dummy+0x1c>)
 80000f4:	e000      	b.n	80000f8 <frame_dummy+0x10>
 80000f6:	bf00      	nop
 80000f8:	bd10      	pop	{r4, pc}
 80000fa:	46c0      	nop			@ (mov r8, r8)
 80000fc:	00000000 	.word	0x00000000
 8000100:	20000024 	.word	0x20000024
 8000104:	08002888 	.word	0x08002888

08000108 <__udivsi3>:
 8000108:	2200      	movs	r2, #0
 800010a:	0843      	lsrs	r3, r0, #1
 800010c:	428b      	cmp	r3, r1
 800010e:	d374      	bcc.n	80001fa <__udivsi3+0xf2>
 8000110:	0903      	lsrs	r3, r0, #4
 8000112:	428b      	cmp	r3, r1
 8000114:	d35f      	bcc.n	80001d6 <__udivsi3+0xce>
 8000116:	0a03      	lsrs	r3, r0, #8
 8000118:	428b      	cmp	r3, r1
 800011a:	d344      	bcc.n	80001a6 <__udivsi3+0x9e>
 800011c:	0b03      	lsrs	r3, r0, #12
 800011e:	428b      	cmp	r3, r1
 8000120:	d328      	bcc.n	8000174 <__udivsi3+0x6c>
 8000122:	0c03      	lsrs	r3, r0, #16
 8000124:	428b      	cmp	r3, r1
 8000126:	d30d      	bcc.n	8000144 <__udivsi3+0x3c>
 8000128:	22ff      	movs	r2, #255	@ 0xff
 800012a:	0209      	lsls	r1, r1, #8
 800012c:	ba12      	rev	r2, r2
 800012e:	0c03      	lsrs	r3, r0, #16
 8000130:	428b      	cmp	r3, r1
 8000132:	d302      	bcc.n	800013a <__udivsi3+0x32>
 8000134:	1212      	asrs	r2, r2, #8
 8000136:	0209      	lsls	r1, r1, #8
 8000138:	d065      	beq.n	8000206 <__udivsi3+0xfe>
 800013a:	0b03      	lsrs	r3, r0, #12
 800013c:	428b      	cmp	r3, r1
 800013e:	d319      	bcc.n	8000174 <__udivsi3+0x6c>
 8000140:	e000      	b.n	8000144 <__udivsi3+0x3c>
 8000142:	0a09      	lsrs	r1, r1, #8
 8000144:	0bc3      	lsrs	r3, r0, #15
 8000146:	428b      	cmp	r3, r1
 8000148:	d301      	bcc.n	800014e <__udivsi3+0x46>
 800014a:	03cb      	lsls	r3, r1, #15
 800014c:	1ac0      	subs	r0, r0, r3
 800014e:	4152      	adcs	r2, r2
 8000150:	0b83      	lsrs	r3, r0, #14
 8000152:	428b      	cmp	r3, r1
 8000154:	d301      	bcc.n	800015a <__udivsi3+0x52>
 8000156:	038b      	lsls	r3, r1, #14
 8000158:	1ac0      	subs	r0, r0, r3
 800015a:	4152      	adcs	r2, r2
 800015c:	0b43      	lsrs	r3, r0, #13
 800015e:	428b      	cmp	r3, r1
 8000160:	d301      	bcc.n	8000166 <__udivsi3+0x5e>
 8000162:	034b      	lsls	r3, r1, #13
 8000164:	1ac0      	subs	r0, r0, r3
 8000166:	4152      	adcs	r2, r2
 8000168:	0b03      	lsrs	r3, r0, #12
 800016a:	428b      	cmp	r3, r1
 800016c:	d301      	bcc.n	8000172 <__udivsi3+0x6a>
 800016e:	030b      	lsls	r3, r1, #12
 8000170:	1ac0      	subs	r0, r0, r3
 8000172:	4152      	adcs	r2, r2
 8000174:	0ac3      	lsrs	r3, r0, #11
 8000176:	428b      	cmp	r3, r1
 8000178:	d301      	bcc.n	800017e <__udivsi3+0x76>
 800017a:	02cb      	lsls	r3, r1, #11
 800017c:	1ac0      	subs	r0, r0, r3
 800017e:	4152      	adcs	r2, r2
 8000180:	0a83      	lsrs	r3, r0, #10
 8000182:	428b      	cmp	r3, r1
 8000184:	d301      	bcc.n	800018a <__udivsi3+0x82>
 8000186:	028b      	lsls	r3, r1, #10
 8000188:	1ac0      	subs	r0, r0, r3
 800018a:	4152      	adcs	r2, r2
 800018c:	0a43      	lsrs	r3, r0, #9
 800018e:	428b      	cmp	r3, r1
 8000190:	d301      	bcc.n	8000196 <__udivsi3+0x8e>
 8000192:	024b      	lsls	r3, r1, #9
 8000194:	1ac0      	subs	r0, r0, r3
 8000196:	4152      	adcs	r2, r2
 8000198:	0a03      	lsrs	r3, r0, #8
 800019a:	428b      	cmp	r3, r1
 800019c:	d301      	bcc.n	80001a2 <__udivsi3+0x9a>
 800019e:	020b      	lsls	r3, r1, #8
 80001a0:	1ac0      	subs	r0, r0, r3
 80001a2:	4152      	adcs	r2, r2
 80001a4:	d2cd      	bcs.n	8000142 <__udivsi3+0x3a>
 80001a6:	09c3      	lsrs	r3, r0, #7
 80001a8:	428b      	cmp	r3, r1
 80001aa:	d301      	bcc.n	80001b0 <__udivsi3+0xa8>
 80001ac:	01cb      	lsls	r3, r1, #7
 80001ae:	1ac0      	subs	r0, r0, r3
 80001b0:	4152      	adcs	r2, r2
 80001b2:	0983      	lsrs	r3, r0, #6
 80001b4:	428b      	cmp	r3, r1
 80001b6:	d301      	bcc.n	80001bc <__udivsi3+0xb4>
 80001b8:	018b      	lsls	r3, r1, #6
 80001ba:	1ac0      	subs	r0, r0, r3
 80001bc:	4152      	adcs	r2, r2
 80001be:	0943      	lsrs	r3, r0, #5
 80001c0:	428b      	cmp	r3, r1
 80001c2:	d301      	bcc.n	80001c8 <__udivsi3+0xc0>
 80001c4:	014b      	lsls	r3, r1, #5
 80001c6:	1ac0      	subs	r0, r0, r3
 80001c8:	4152      	adcs	r2, r2
 80001ca:	0903      	lsrs	r3, r0, #4
 80001cc:	428b      	cmp	r3, r1
 80001ce:	d301      	bcc.n	80001d4 <__udivsi3+0xcc>
 80001d0:	010b      	lsls	r3, r1, #4
 80001d2:	1ac0      	subs	r0, r0, r3
 80001d4:	4152      	adcs	r2, r2
 80001d6:	08c3      	lsrs	r3, r0, #3
 80001d8:	428b      	cmp	r3, r1
 80001da:	d301      	bcc.n	80001e0 <__udivsi3+0xd8>
 80001dc:	00cb      	lsls	r3, r1, #3
 80001de:	1ac0      	subs	r0, r0, r3
 80001e0:	4152      	adcs	r2, r2
 80001e2:	0883      	lsrs	r3, r0, #2
 80001e4:	428b      	cmp	r3, r1
 80001e6:	d301      	bcc.n	80001ec <__udivsi3+0xe4>
 80001e8:	008b      	lsls	r3, r1, #2
 80001ea:	1ac0      	subs	r0, r0, r3
 80001ec:	4152      	adcs	r2, r2
 80001ee:	0843      	lsrs	r3, r0, #1
 80001f0:	428b      	cmp	r3, r1
 80001f2:	d301      	bcc.n	80001f8 <__udivsi3+0xf0>
 80001f4:	004b      	lsls	r3, r1, #1
 80001f6:	1ac0      	subs	r0, r0, r3
 80001f8:	4152      	adcs	r2, r2
 80001fa:	1a41      	subs	r1, r0, r1
 80001fc:	d200      	bcs.n	8000200 <__udivsi3+0xf8>
 80001fe:	4601      	mov	r1, r0
 8000200:	4152      	adcs	r2, r2
 8000202:	4610      	mov	r0, r2
 8000204:	4770      	bx	lr
 8000206:	e7ff      	b.n	8000208 <__udivsi3+0x100>
 8000208:	b501      	push	{r0, lr}
 800020a:	2000      	movs	r0, #0
 800020c:	f000 f806 	bl	800021c <__aeabi_idiv0>
 8000210:	bd02      	pop	{r1, pc}
 8000212:	46c0      	nop			@ (mov r8, r8)

08000214 <__aeabi_uidivmod>:
 8000214:	2900      	cmp	r1, #0
 8000216:	d0f7      	beq.n	8000208 <__udivsi3+0x100>
 8000218:	e776      	b.n	8000108 <__udivsi3>
 800021a:	4770      	bx	lr

0800021c <__aeabi_idiv0>:
 800021c:	4770      	bx	lr
 800021e:	46c0      	nop			@ (mov r8, r8)

08000220 <__aeabi_uldivmod>:
 8000220:	2b00      	cmp	r3, #0
 8000222:	d111      	bne.n	8000248 <__aeabi_uldivmod+0x28>
 8000224:	2a00      	cmp	r2, #0
 8000226:	d10f      	bne.n	8000248 <__aeabi_uldivmod+0x28>
 8000228:	2900      	cmp	r1, #0
 800022a:	d100      	bne.n	800022e <__aeabi_uldivmod+0xe>
 800022c:	2800      	cmp	r0, #0
 800022e:	d002      	beq.n	8000236 <__aeabi_uldivmod+0x16>
 8000230:	2100      	movs	r1, #0
 8000232:	43c9      	mvns	r1, r1
 8000234:	0008      	movs	r0, r1
 8000236:	b407      	push	{r0, r1, r2}
 8000238:	4802      	ldr	r0, [pc, #8]	@ (8000244 <__aeabi_uldivmod+0x24>)
 800023a:	a102      	add	r1, pc, #8	@ (adr r1, 8000244 <__aeabi_uldivmod+0x24>)
 800023c:	1840      	adds	r0, r0, r1
 800023e:	9002      	str	r0, [sp, #8]
 8000240:	bd03      	pop	{r0, r1, pc}
 8000242:	46c0      	nop			@ (mov r8, r8)
 8000244:	ffffffd9 	.word	0xffffffd9
 8000248:	b403      	push	{r0, r1}
 800024a:	4668      	mov	r0, sp
 800024c:	b501      	push	{r0, lr}
 800024e:	9802      	ldr	r0, [sp, #8]
 8000250:	f000 f834 	bl	80002bc <__udivmoddi4>
 8000254:	9b01      	ldr	r3, [sp, #4]
 8000256:	469e      	mov	lr, r3
 8000258:	b002      	add	sp, #8
 800025a:	bc0c      	pop	{r2, r3}
 800025c:	4770      	bx	lr
 800025e:	46c0      	nop			@ (mov r8, r8)

08000260 <__aeabi_lmul>:
 8000260:	b5f0      	push	{r4, r5, r6, r7, lr}
 8000262:	46ce      	mov	lr, r9
 8000264:	4699      	mov	r9, r3
 8000266:	0c03      	lsrs	r3, r0, #16
 8000268:	469c      	mov	ip, r3
 800026a:	0413      	lsls	r3, r2, #16
 800026c:	4647      	mov	r7, r8
 800026e:	0c1b      	lsrs	r3, r3, #16
 8000270:	001d      	movs	r5, r3
 8000272:	000e      	movs	r6, r1
 8000274:	4661      	mov	r1, ip
 8000276:	0404      	lsls	r4, r0, #16
 8000278:	0c24      	lsrs	r4, r4, #16
 800027a:	b580      	push	{r7, lr}
 800027c:	0007      	movs	r7, r0
 800027e:	0c10      	lsrs	r0, r2, #16
 8000280:	434b      	muls	r3, r1
 8000282:	4365      	muls	r5, r4
 8000284:	4341      	muls	r1, r0
 8000286:	4360      	muls	r0, r4
 8000288:	0c2c      	lsrs	r4, r5, #16
 800028a:	18c0      	adds	r0, r0, r3
 800028c:	1824      	adds	r4, r4, r0
 800028e:	468c      	mov	ip, r1
 8000290:	42a3      	cmp	r3, r4
 8000292:	d903      	bls.n	800029c <__aeabi_lmul+0x3c>
 8000294:	2380      	movs	r3, #128	@ 0x80
 8000296:	025b      	lsls	r3, r3, #9
 8000298:	4698      	mov	r8, r3
 800029a:	44c4      	add	ip, r8
 800029c:	4649      	mov	r1, r9
 800029e:	4379      	muls	r1, r7
 80002a0:	4356      	muls	r6, r2
 80002a2:	0c23      	lsrs	r3, r4, #16
 80002a4:	042d      	lsls	r5, r5, #16
 80002a6:	0c2d      	lsrs	r5, r5, #16
 80002a8:	1989      	adds	r1, r1, r6
 80002aa:	4463      	add	r3, ip
 80002ac:	0424      	lsls	r4, r4, #16
 80002ae:	1960      	adds	r0, r4, r5
 80002b0:	18c9      	adds	r1, r1, r3
 80002b2:	bcc0      	pop	{r6, r7}
 80002b4:	46b9      	mov	r9, r7
 80002b6:	46b0      	mov	r8, r6
 80002b8:	bdf0      	pop	{r4, r5, r6, r7, pc}
 80002ba:	46c0      	nop			@ (mov r8, r8)

080002bc <__udivmoddi4>:
 80002bc:	b5f0      	push	{r4, r5, r6, r7, lr}
 80002be:	4657      	mov	r7, sl
 80002c0:	464e      	mov	r6, r9
 80002c2:	4645      	mov	r5, r8
 80002c4:	46de      	mov	lr, fp
 80002c6:	b5e0      	push	{r5, r6, r7, lr}
 80002c8:	0004      	movs	r4, r0
 80002ca:	000d      	movs	r5, r1
 80002cc:	4692      	mov	sl, r2
 80002ce:	4699      	mov	r9, r3
 80002d0:	b083      	sub	sp, #12
 80002d2:	428b      	cmp	r3, r1
 80002d4:	d830      	bhi.n	8000338 <__udivmoddi4+0x7c>
 80002d6:	d02d      	beq.n	8000334 <__udivmoddi4+0x78>
 80002d8:	4649      	mov	r1, r9
 80002da:	4650      	mov	r0, sl
 80002dc:	f000 f8ba 	bl	8000454 <__clzdi2>
 80002e0:	0029      	movs	r1, r5
 80002e2:	0006      	movs	r6, r0
 80002e4:	0020      	movs	r0, r4
 80002e6:	f000 f8b5 	bl	8000454 <__clzdi2>
 80002ea:	1a33      	subs	r3, r6, r0
 80002ec:	4698      	mov	r8, r3
 80002ee:	3b20      	subs	r3, #32
 80002f0:	d434      	bmi.n	800035c <__udivmoddi4+0xa0>
 80002f2:	469b      	mov	fp, r3
 80002f4:	4653      	mov	r3, sl
 80002f6:	465a      	mov	r2, fp
 80002f8:	4093      	lsls	r3, r2
 80002fa:	4642      	mov	r2, r8
 80002fc:	001f      	movs	r7, r3
 80002fe:	4653      	mov	r3, sl
 8000300:	4093      	lsls	r3, r2
 8000302:	001e      	movs	r6, r3
 8000304:	42af      	cmp	r7, r5
 8000306:	d83b      	bhi.n	8000380 <__udivmoddi4+0xc4>
 8000308:	42af      	cmp	r7, r5
 800030a:	d100      	bne.n	800030e <__udivmoddi4+0x52>
 800030c:	e079      	b.n	8000402 <__udivmoddi4+0x146>
 800030e:	465b      	mov	r3, fp
 8000310:	1ba4      	subs	r4, r4, r6
 8000312:	41bd      	sbcs	r5, r7
 8000314:	2b00      	cmp	r3, #0
 8000316:	da00      	bge.n	800031a <__udivmoddi4+0x5e>
 8000318:	e076      	b.n	8000408 <__udivmoddi4+0x14c>
 800031a:	2200      	movs	r2, #0
 800031c:	2300      	movs	r3, #0
 800031e:	9200      	str	r2, [sp, #0]
 8000320:	9301      	str	r3, [sp, #4]
 8000322:	2301      	movs	r3, #1
 8000324:	465a      	mov	r2, fp
 8000326:	4093      	lsls	r3, r2
 8000328:	9301      	str	r3, [sp, #4]
 800032a:	2301      	movs	r3, #1
 800032c:	4642      	mov	r2, r8
 800032e:	4093      	lsls	r3, r2
 8000330:	9300      	str	r3, [sp, #0]
 8000332:	e029      	b.n	8000388 <__udivmoddi4+0xcc>
 8000334:	4282      	cmp	r2, r0
 8000336:	d9cf      	bls.n	80002d8 <__udivmoddi4+0x1c>
 8000338:	2200      	movs	r2, #0
 800033a:	2300      	movs	r3, #0
 800033c:	9200      	str	r2, [sp, #0]
 800033e:	9301      	str	r3, [sp, #4]
 8000340:	9b0c      	ldr	r3, [sp, #48]	@ 0x30
 8000342:	2b00      	cmp	r3, #0
 8000344:	d001      	beq.n	800034a <__udivmoddi4+0x8e>
 8000346:	601c      	str	r4, [r3, #0]
 8000348:	605d      	str	r5, [r3, #4]
 800034a:	9800      	ldr	r0, [sp, #0]
 800034c:	9901      	ldr	r1, [sp, #4]
 800034e:	b003      	add	sp, #12
 8000350:	bcf0      	pop	{r4, r5, r6, r7}
 8000352:	46bb      	mov	fp, r7
 8000354:	46b2      	mov	sl, r6
 8000356:	46a9      	mov	r9, r5
 8000358:	46a0      	mov	r8, r4
 800035a:	bdf0      	pop	{r4, r5, r6, r7, pc}
 800035c:	4642      	mov	r2, r8
 800035e:	469b      	mov	fp, r3
 8000360:	2320      	movs	r3, #32
 8000362:	1a9b      	subs	r3, r3, r2
 8000364:	4652      	mov	r2, sl
 8000366:	40da      	lsrs	r2, r3
 8000368:	4641      	mov	r1, r8
 800036a:	0013      	movs	r3, r2
 800036c:	464a      	mov	r2, r9
 800036e:	408a      	lsls	r2, r1
 8000370:	0017      	movs	r7, r2
 8000372:	4642      	mov	r2, r8
 8000374:	431f      	orrs	r7, r3
 8000376:	4653      	mov	r3, sl
 8000378:	4093      	lsls	r3, r2
 800037a:	001e      	movs	r6, r3
 800037c:	42af      	cmp	r7, r5
 800037e:	d9c3      	bls.n	8000308 <__udivmoddi4+0x4c>
 8000380:	2200      	movs	r2, #0
 8000382:	2300      	movs	r3, #0
 8000384:	9200      	str	r2, [sp, #0]
 8000386:	9301      	str	r3, [sp, #4]
 8000388:	4643      	mov	r3, r8
 800038a:	2b00      	cmp	r3, #0
 800038c:	d0d8      	beq.n	8000340 <__udivmoddi4+0x84>
 800038e:	07fb      	lsls	r3, r7, #31
 8000390:	0872      	lsrs	r2, r6, #1
 8000392:	431a      	orrs	r2, r3
 8000394:	4646      	mov	r6, r8
 8000396:	087b      	lsrs	r3, r7, #1
 8000398:	e00e      	b.n	80003b8 <__udivmoddi4+0xfc>
 800039a:	42ab      	cmp	r3, r5
 800039c:	d101      	bne.n	80003a2 <__udivmoddi4+0xe6>
 800039e:	42a2      	cmp	r2, r4
 80003a0:	d80c      	bhi.n	80003bc <__udivmoddi4+0x100>
 80003a2:	1aa4      	subs	r4, r4, r2
 80003a4:	419d      	sbcs	r5, r3
 80003a6:	2001      	movs	r0, #1
 80003a8:	1924      	adds	r4, r4, r4
 80003aa:	416d      	adcs	r5, r5
 80003ac:	2100      	movs	r1, #0
 80003ae:	3e01      	subs	r6, #1
 80003b0:	1824      	adds	r4, r4, r0
 80003b2:	414d      	adcs	r5, r1
 80003b4:	2e00      	cmp	r6, #0
 80003b6:	d006      	beq.n	80003c6 <__udivmoddi4+0x10a>
 80003b8:	42ab      	cmp	r3, r5
 80003ba:	d9ee      	bls.n	800039a <__udivmoddi4+0xde>
 80003bc:	3e01      	subs	r6, #1
 80003be:	1924      	adds	r4, r4, r4
 80003c0:	416d      	adcs	r5, r5
 80003c2:	2e00      	cmp	r6, #0
 80003c4:	d1f8      	bne.n	80003b8 <__udivmoddi4+0xfc>
 80003c6:	9800      	ldr	r0, [sp, #0]
 80003c8:	9901      	ldr	r1, [sp, #4]
 80003ca:	465b      	mov	r3, fp
 80003cc:	1900      	adds	r0, r0, r4
 80003ce:	4169      	adcs	r1, r5
 80003d0:	2b00      	cmp	r3, #0
 80003d2:	db24      	blt.n	800041e <__udivmoddi4+0x162>
 80003d4:	002b      	movs	r3, r5
 80003d6:	465a      	mov	r2, fp
 80003d8:	4644      	mov	r4, r8
 80003da:	40d3      	lsrs	r3, r2
 80003dc:	002a      	movs	r2, r5
 80003de:	40e2      	lsrs	r2, r4
 80003e0:	001c      	movs	r4, r3
 80003e2:	465b      	mov	r3, fp
 80003e4:	0015      	movs	r5, r2
 80003e6:	2b00      	cmp	r3, #0
 80003e8:	db2a      	blt.n	8000440 <__udivmoddi4+0x184>
 80003ea:	0026      	movs	r6, r4
 80003ec:	409e      	lsls	r6, r3
 80003ee:	0033      	movs	r3, r6
 80003f0:	0026      	movs	r6, r4
 80003f2:	4647      	mov	r7, r8
 80003f4:	40be      	lsls	r6, r7
 80003f6:	0032      	movs	r2, r6
 80003f8:	1a80      	subs	r0, r0, r2
 80003fa:	4199      	sbcs	r1, r3
 80003fc:	9000      	str	r0, [sp, #0]
 80003fe:	9101      	str	r1, [sp, #4]
 8000400:	e79e      	b.n	8000340 <__udivmoddi4+0x84>
 8000402:	42a3      	cmp	r3, r4
 8000404:	d8bc      	bhi.n	8000380 <__udivmoddi4+0xc4>
 8000406:	e782      	b.n	800030e <__udivmoddi4+0x52>
 8000408:	4642      	mov	r2, r8
 800040a:	2320      	movs	r3, #32
 800040c:	2100      	movs	r1, #0
 800040e:	1a9b      	subs	r3, r3, r2
 8000410:	2200      	movs	r2, #0
 8000412:	9100      	str	r1, [sp, #0]
 8000414:	9201      	str	r2, [sp, #4]
 8000416:	2201      	movs	r2, #1
 8000418:	40da      	lsrs	r2, r3
 800041a:	9201      	str	r2, [sp, #4]
 800041c:	e785      	b.n	800032a <__udivmoddi4+0x6e>
 800041e:	4642      	mov	r2, r8
 8000420:	2320      	movs	r3, #32
 8000422:	1a9b      	subs	r3, r3, r2
 8000424:	002a      	movs	r2, r5
 8000426:	4646      	mov	r6, r8
 8000428:	409a      	lsls	r2, r3
 800042a:	0023      	movs	r3, r4
 800042c:	40f3      	lsrs	r3, r6
 800042e:	4644      	mov	r4, r8
 8000430:	4313      	orrs	r3, r2
 8000432:	002a      	movs	r2, r5
 8000434:	40e2      	lsrs	r2, r4
 8000436:	001c      	movs	r4, r3
 8000438:	465b      	mov	r3, fp
 800043a:	0015      	movs	r5, r2
 800043c:	2b00      	cmp	r3, #0
 800043e:	dad4      	bge.n	80003ea <__udivmoddi4+0x12e>
 8000440:	4642      	mov	r2, r8
 8000442:	002f      	movs	r7, r5
 8000444:	2320      	movs	r3, #32
 8000446:	0026      	movs	r6, r4
 8000448:	4097      	lsls	r7, r2
 800044a:	1a9b      	subs	r3, r3, r2
 800044c:	40de      	lsrs	r6, r3
 800044e:	003b      	movs	r3, r7
 8000450:	4333      	orrs	r3, r6
 8000452:	e7cd      	b.n	80003f0 <__udivmoddi4+0x134>

08000454 <__clzdi2>:
 8000454:	b510      	push	{r4, lr}
 8000456:	2900      	cmp	r1, #0
 8000458:	d103      	bne.n	8000462 <__clzdi2+0xe>
 800045a:	f000 f807 	bl	800046c <__clzsi2>
 800045e:	3020      	adds	r0, #32
 8000460:	e002      	b.n	8000468 <__clzdi2+0x14>
 8000462:	0008      	movs	r0, r1
 8000464:	f000 f802 	bl	800046c <__clzsi2>
 8000468:	bd10      	pop	{r4, pc}
 800046a:	46c0      	nop			@ (mov r8, r8)

0800046c <__clzsi2>:
 800046c:	211c      	movs	r1, #28
 800046e:	2301      	movs	r3, #1
 8000470:	041b      	lsls	r3, r3, #16
 8000472:	4298      	cmp	r0, r3
 8000474:	d301      	bcc.n	800047a <__clzsi2+0xe>
 8000476:	0c00      	lsrs	r0, r0, #16
 8000478:	3910      	subs	r1, #16
 800047a:	0a1b      	lsrs	r3, r3, #8
 800047c:	4298      	cmp	r0, r3
 800047e:	d301      	bcc.n	8000484 <__clzsi2+0x18>
 8000480:	0a00      	lsrs	r0, r0, #8
 8000482:	3908      	subs	r1, #8
 8000484:	091b      	lsrs	r3, r3, #4
 8000486:	4298      	cmp	r0, r3
 8000488:	d301      	bcc.n	800048e <__clzsi2+0x22>
 800048a:	0900      	lsrs	r0, r0, #4
 800048c:	3904      	subs	r1, #4
 800048e:	a202      	add	r2, pc, #8	@ (adr r2, 8000498 <__clzsi2+0x2c>)
 8000490:	5c10      	ldrb	r0, [r2, r0]
 8000492:	1840      	adds	r0, r0, r1
 8000494:	4770      	bx	lr
 8000496:	46c0      	nop			@ (mov r8, r8)
 8000498:	02020304 	.word	0x02020304
 800049c:	01010101 	.word	0x01010101
	...

080004a8 <shift_reg_pulse_srclk>:
	0b0010000000,	// 7
	0b0100000000,	// 8
	0b1000000000 	// 9
};

static void shift_reg_pulse_srclk(uint32_t delay_ms) {
 80004a8:	b510      	push	{r4, lr}
 80004aa:	0004      	movs	r4, r0
	SHIFT_REG_SET(1);
 80004ac:	2201      	movs	r2, #1
 80004ae:	2102      	movs	r1, #2
 80004b0:	480a      	ldr	r0, [pc, #40]	@ (80004dc <shift_reg_pulse_srclk+0x34>)
 80004b2:	f000 fdbb 	bl	800102c <HAL_GPIO_WritePin>
	if (delay_ms > 0) HAL_Delay(delay_ms - 1);
 80004b6:	2c00      	cmp	r4, #0
 80004b8:	d107      	bne.n	80004ca <shift_reg_pulse_srclk+0x22>
	SHIFT_REG_SET(0);
 80004ba:	2200      	movs	r2, #0
 80004bc:	2102      	movs	r1, #2
 80004be:	4807      	ldr	r0, [pc, #28]	@ (80004dc <shift_reg_pulse_srclk+0x34>)
 80004c0:	f000 fdb4 	bl	800102c <HAL_GPIO_WritePin>
	if (delay_ms > 0) HAL_Delay(delay_ms - 1);
 80004c4:	2c00      	cmp	r4, #0
 80004c6:	d104      	bne.n	80004d2 <shift_reg_pulse_srclk+0x2a>
}
 80004c8:	bd10      	pop	{r4, pc}
	if (delay_ms > 0) HAL_Delay(delay_ms - 1);
 80004ca:	1e60      	subs	r0, r4, #1
 80004cc:	f000 fc8a 	bl	8000de4 <HAL_Delay>
 80004d0:	e7f3      	b.n	80004ba <shift_reg_pulse_srclk+0x12>
	if (delay_ms > 0) HAL_Delay(delay_ms - 1);
 80004d2:	1e60      	subs	r0, r4, #1
 80004d4:	f000 fc86 	bl	8000de4 <HAL_Delay>
}
 80004d8:	e7f6      	b.n	80004c8 <shift_reg_pulse_srclk+0x20>
 80004da:	46c0      	nop			@ (mov r8, r8)
 80004dc:	50000400 	.word	0x50000400

080004e0 <shift_reg_send>:
	if (delay_ms > 0) HAL_Delay(delay_ms - 1);
}


// data size is 16 bit, but only 10 are actually connected to a nixie lamp
static void shift_reg_send(uint16_t data) {
 80004e0:	b570      	push	{r4, r5, r6, lr}
 80004e2:	0005      	movs	r5, r0
	for (int8_t bit = 15; bit >= 0; --bit) {	// Send least significant bit first
 80004e4:	240f      	movs	r4, #15
 80004e6:	e00d      	b.n	8000504 <shift_reg_send+0x24>
		/*
		 * Push data into shift register
		 */
		DATA_SET((data >> bit) & 1);
 80004e8:	002b      	movs	r3, r5
 80004ea:	4123      	asrs	r3, r4
 80004ec:	2201      	movs	r2, #1
 80004ee:	401a      	ands	r2, r3
 80004f0:	20a0      	movs	r0, #160	@ 0xa0
 80004f2:	2140      	movs	r1, #64	@ 0x40
 80004f4:	05c0      	lsls	r0, r0, #23
 80004f6:	f000 fd99 	bl	800102c <HAL_GPIO_WritePin>

		/*
		 * Set SER pin according to currently transmitted bit
		 * Toggle clock n times to set all N bits
		 */
		shift_reg_pulse_srclk(PULSE_DURATION_MS);
 80004fa:	2000      	movs	r0, #0
 80004fc:	f7ff ffd4 	bl	80004a8 <shift_reg_pulse_srclk>
	for (int8_t bit = 15; bit >= 0; --bit) {	// Send least significant bit first
 8000500:	3c01      	subs	r4, #1
 8000502:	b264      	sxtb	r4, r4
 8000504:	2c00      	cmp	r4, #0
 8000506:	daef      	bge.n	80004e8 <shift_reg_send+0x8>
	}
}
 8000508:	bd70      	pop	{r4, r5, r6, pc}
	...

0800050c <shift_reg_pulse_rclk>:
static void shift_reg_pulse_rclk(uint32_t delay_ms) {
 800050c:	b510      	push	{r4, lr}
 800050e:	0004      	movs	r4, r0
	STORAGE_REG_SET(1);
 8000510:	2201      	movs	r2, #1
 8000512:	2101      	movs	r1, #1
 8000514:	480a      	ldr	r0, [pc, #40]	@ (8000540 <shift_reg_pulse_rclk+0x34>)
 8000516:	f000 fd89 	bl	800102c <HAL_GPIO_WritePin>
	if (delay_ms > 0) HAL_Delay(delay_ms - 1);
 800051a:	2c00      	cmp	r4, #0
 800051c:	d107      	bne.n	800052e <shift_reg_pulse_rclk+0x22>
	STORAGE_REG_SET(0);
 800051e:	2200      	movs	r2, #0
 8000520:	2101      	movs	r1, #1
 8000522:	4807      	ldr	r0, [pc, #28]	@ (8000540 <shift_reg_pulse_rclk+0x34>)
 8000524:	f000 fd82 	bl	800102c <HAL_GPIO_WritePin>
	if (delay_ms > 0) HAL_Delay(delay_ms - 1);
 8000528:	2c00      	cmp	r4, #0
 800052a:	d104      	bne.n	8000536 <shift_reg_pulse_rclk+0x2a>
}
 800052c:	bd10      	pop	{r4, pc}
	if (delay_ms > 0) HAL_Delay(delay_ms - 1);
 800052e:	1e60      	subs	r0, r4, #1
 8000530:	f000 fc58 	bl	8000de4 <HAL_Delay>
 8000534:	e7f3      	b.n	800051e <shift_reg_pulse_rclk+0x12>
	if (delay_ms > 0) HAL_Delay(delay_ms - 1);
 8000536:	1e60      	subs	r0, r4, #1
 8000538:	f000 fc54 	bl	8000de4 <HAL_Delay>
}
 800053c:	e7f6      	b.n	800052c <shift_reg_pulse_rclk+0x20>
 800053e:	46c0      	nop			@ (mov r8, r8)
 8000540:	50000400 	.word	0x50000400

08000544 <IN12_set_digits_separately>:

void IN12_set_digit_pairs(uint16_t first_number, uint16_t second_number) {
	IN12_set_digits_separately(first_number/10, first_number%10, second_number/10, second_number%10);
}

void IN12_set_digits_separately(uint8_t first_digit, uint8_t second_digit, uint8_t third_digit, uint8_t forth_digit) {
 8000544:	b5f8      	push	{r3, r4, r5, r6, r7, lr}
 8000546:	46ce      	mov	lr, r9
 8000548:	4647      	mov	r7, r8
 800054a:	b580      	push	{r7, lr}
 800054c:	4680      	mov	r8, r0
 800054e:	000f      	movs	r7, r1
 8000550:	0016      	movs	r6, r2
 8000552:	001d      	movs	r5, r3
	OUTPUT_DISABLE();
 8000554:	23a0      	movs	r3, #160	@ 0xa0
 8000556:	05db      	lsls	r3, r3, #23
 8000558:	4699      	mov	r9, r3
 800055a:	2201      	movs	r2, #1
 800055c:	2180      	movs	r1, #128	@ 0x80
 800055e:	0018      	movs	r0, r3
 8000560:	f000 fd64 	bl	800102c <HAL_GPIO_WritePin>

	/*
	 * Prepare bitmasks to be sent
	 */
	uint16_t first_digit_data 	= digit_bitmask[first_digit];
 8000564:	4c10      	ldr	r4, [pc, #64]	@ (80005a8 <IN12_set_digits_separately+0x64>)
 8000566:	4643      	mov	r3, r8
 8000568:	005b      	lsls	r3, r3, #1
 800056a:	5b1b      	ldrh	r3, [r3, r4]
 800056c:	4698      	mov	r8, r3
	uint16_t second_digit_data 	= digit_bitmask[second_digit];
 800056e:	007f      	lsls	r7, r7, #1
 8000570:	5b3f      	ldrh	r7, [r7, r4]
	uint16_t third_digit_data 	= digit_bitmask[third_digit];
 8000572:	0076      	lsls	r6, r6, #1
 8000574:	5b36      	ldrh	r6, [r6, r4]
	uint16_t forth_digit_data 	= digit_bitmask[forth_digit];
 8000576:	006d      	lsls	r5, r5, #1
 8000578:	5b28      	ldrh	r0, [r5, r4]

	/*
	 * Send data
	 */
	shift_reg_send(forth_digit_data);
 800057a:	f7ff ffb1 	bl	80004e0 <shift_reg_send>
	shift_reg_send(third_digit_data);
 800057e:	0030      	movs	r0, r6
 8000580:	f7ff ffae 	bl	80004e0 <shift_reg_send>
	shift_reg_send(second_digit_data);
 8000584:	0038      	movs	r0, r7
 8000586:	f7ff ffab 	bl	80004e0 <shift_reg_send>
	shift_reg_send(first_digit_data);
 800058a:	4640      	mov	r0, r8
 800058c:	f7ff ffa8 	bl	80004e0 <shift_reg_send>

	/*
	 * Toggle latch
	 */
	shift_reg_pulse_rclk(PULSE_DURATION_MS);
 8000590:	2000      	movs	r0, #0
 8000592:	f7ff ffbb 	bl	800050c <shift_reg_pulse_rclk>

	OUTPUT_ENABLE();
 8000596:	2200      	movs	r2, #0
 8000598:	2180      	movs	r1, #128	@ 0x80
 800059a:	4648      	mov	r0, r9
 800059c:	f000 fd46 	bl	800102c <HAL_GPIO_WritePin>
}
 80005a0:	bcc0      	pop	{r6, r7}
 80005a2:	46b9      	mov	r9, r7
 80005a4:	46b0      	mov	r8, r6
 80005a6:	bdf8      	pop	{r3, r4, r5, r6, r7, pc}
 80005a8:	20000000 	.word	0x20000000

080005ac <IN12_set_digit_pairs>:
void IN12_set_digit_pairs(uint16_t first_number, uint16_t second_number) {
 80005ac:	b5f8      	push	{r3, r4, r5, r6, r7, lr}
 80005ae:	0004      	movs	r4, r0
 80005b0:	000d      	movs	r5, r1
	IN12_set_digits_separately(first_number/10, first_number%10, second_number/10, second_number%10);
 80005b2:	210a      	movs	r1, #10
 80005b4:	0028      	movs	r0, r5
 80005b6:	f7ff fe2d 	bl	8000214 <__aeabi_uidivmod>
 80005ba:	b2cf      	uxtb	r7, r1
 80005bc:	210a      	movs	r1, #10
 80005be:	0028      	movs	r0, r5
 80005c0:	f7ff fda2 	bl	8000108 <__udivsi3>
 80005c4:	b2c6      	uxtb	r6, r0
 80005c6:	210a      	movs	r1, #10
 80005c8:	0020      	movs	r0, r4
 80005ca:	f7ff fe23 	bl	8000214 <__aeabi_uidivmod>
 80005ce:	b2cd      	uxtb	r5, r1
 80005d0:	210a      	movs	r1, #10
 80005d2:	0020      	movs	r0, r4
 80005d4:	f7ff fd98 	bl	8000108 <__udivsi3>
 80005d8:	b2c0      	uxtb	r0, r0
 80005da:	003b      	movs	r3, r7
 80005dc:	0032      	movs	r2, r6
 80005de:	0029      	movs	r1, r5
 80005e0:	f7ff ffb0 	bl	8000544 <IN12_set_digits_separately>
}
 80005e4:	bdf8      	pop	{r3, r4, r5, r6, r7, pc}
	...

080005e8 <IN12_init>:

void IN12_init(void) {
 80005e8:	b570      	push	{r4, r5, r6, lr}
	rtc_time.Hours 		= DS3231_GetHour();
 80005ea:	f000 fb63 	bl	8000cb4 <DS3231_GetHour>
 80005ee:	4c12      	ldr	r4, [pc, #72]	@ (8000638 <IN12_init+0x50>)
 80005f0:	7020      	strb	r0, [r4, #0]
	rtc_time.Minutes 	= DS3231_GetMinute();
 80005f2:	f000 fb66 	bl	8000cc2 <DS3231_GetMinute>
 80005f6:	7060      	strb	r0, [r4, #1]
	rtc_time.Seconds 	= DS3231_GetSecond();
 80005f8:	f000 fb6a 	bl	8000cd0 <DS3231_GetSecond>
 80005fc:	70a0      	strb	r0, [r4, #2]

	rtc_date.Year 		= DS3231_GetYear();
 80005fe:	f000 fb42 	bl	8000c86 <DS3231_GetYear>
 8000602:	4d0e      	ldr	r5, [pc, #56]	@ (800063c <IN12_init+0x54>)
 8000604:	70e8      	strb	r0, [r5, #3]
	rtc_date.Month 		= DS3231_GetMonth();
 8000606:	f000 fb35 	bl	8000c74 <DS3231_GetMonth>
 800060a:	7068      	strb	r0, [r5, #1]
	rtc_date.Date 		= DS3231_GetDate();
 800060c:	f000 fb2b 	bl	8000c66 <DS3231_GetDate>
 8000610:	70a8      	strb	r0, [r5, #2]
	rtc_date.WeekDay 	= DS3231_GetDayOfWeek();
 8000612:	f000 fb21 	bl	8000c58 <DS3231_GetDayOfWeek>
 8000616:	7028      	strb	r0, [r5, #0]

	if(!rtc_time.Hours && !rtc_time.Minutes && !rtc_time.Seconds) {
 8000618:	6823      	ldr	r3, [r4, #0]
 800061a:	021b      	lsls	r3, r3, #8
 800061c:	d005      	beq.n	800062a <IN12_init+0x42>
		// todo: go to the "time set mode" automaticaly
		DS3231_SetFullTime(21, 34, 00);
	}


	DS3231_GetDate();
 800061e:	f000 fb22 	bl	8000c66 <DS3231_GetDate>
	DS3231_EnableOscillator(DS3231_ENABLED);
 8000622:	2001      	movs	r0, #1
 8000624:	f000 faa9 	bl	8000b7a <DS3231_EnableOscillator>
}
 8000628:	bd70      	pop	{r4, r5, r6, pc}
		DS3231_SetFullTime(21, 34, 00);
 800062a:	2200      	movs	r2, #0
 800062c:	2122      	movs	r1, #34	@ 0x22
 800062e:	2015      	movs	r0, #21
 8000630:	f000 fb7d 	bl	8000d2e <DS3231_SetFullTime>
 8000634:	e7f3      	b.n	800061e <IN12_init+0x36>
 8000636:	46c0      	nop			@ (mov r8, r8)
 8000638:	20000040 	.word	0x20000040
 800063c:	2000003c 	.word	0x2000003c

08000640 <MX_GPIO_Init>:
  * @brief GPIO Initialization Function
  * @param None
  * @retval None
  */
static void MX_GPIO_Init(void)
{
 8000640:	b5f0      	push	{r4, r5, r6, r7, lr}
 8000642:	46ce      	mov	lr, r9
 8000644:	4647      	mov	r7, r8
 8000646:	b580      	push	{r7, lr}
 8000648:	b089      	sub	sp, #36	@ 0x24
  GPIO_InitTypeDef GPIO_InitStruct = {0};
 800064a:	2214      	movs	r2, #20
 800064c:	2100      	movs	r1, #0
 800064e:	a803      	add	r0, sp, #12
 8000650:	f002 f8ee 	bl	8002830 <memset>
/* USER CODE BEGIN MX_GPIO_Init_1 */
/* USER CODE END MX_GPIO_Init_1 */

  /* GPIO Ports Clock Enable */
  __HAL_RCC_GPIOC_CLK_ENABLE();
 8000654:	4b3a      	ldr	r3, [pc, #232]	@ (8000740 <MX_GPIO_Init+0x100>)
 8000656:	6ad9      	ldr	r1, [r3, #44]	@ 0x2c
 8000658:	2204      	movs	r2, #4
 800065a:	4311      	orrs	r1, r2
 800065c:	62d9      	str	r1, [r3, #44]	@ 0x2c
 800065e:	6ad9      	ldr	r1, [r3, #44]	@ 0x2c
 8000660:	400a      	ands	r2, r1
 8000662:	9200      	str	r2, [sp, #0]
 8000664:	9a00      	ldr	r2, [sp, #0]
  __HAL_RCC_GPIOA_CLK_ENABLE();
 8000666:	6ada      	ldr	r2, [r3, #44]	@ 0x2c
 8000668:	2501      	movs	r5, #1
 800066a:	432a      	orrs	r2, r5
 800066c:	62da      	str	r2, [r3, #44]	@ 0x2c
 800066e:	6ada      	ldr	r2, [r3, #44]	@ 0x2c
 8000670:	402a      	ands	r2, r5
 8000672:	9201      	str	r2, [sp, #4]
 8000674:	9a01      	ldr	r2, [sp, #4]
  __HAL_RCC_GPIOB_CLK_ENABLE();
 8000676:	6ada      	ldr	r2, [r3, #44]	@ 0x2c
 8000678:	2702      	movs	r7, #2
 800067a:	433a      	orrs	r2, r7
 800067c:	62da      	str	r2, [r3, #44]	@ 0x2c
 800067e:	6adb      	ldr	r3, [r3, #44]	@ 0x2c
 8000680:	403b      	ands	r3, r7
 8000682:	9302      	str	r3, [sp, #8]
 8000684:	9b02      	ldr	r3, [sp, #8]

  /*Configure GPIO pin Output Level */
  HAL_GPIO_WritePin(GPIOC, DIMM_LED_1_Pin|DIMM_LED_2_Pin, GPIO_PIN_RESET);
 8000686:	24c0      	movs	r4, #192	@ 0xc0
 8000688:	0224      	lsls	r4, r4, #8
 800068a:	4b2e      	ldr	r3, [pc, #184]	@ (8000744 <MX_GPIO_Init+0x104>)
 800068c:	4699      	mov	r9, r3
 800068e:	2200      	movs	r2, #0
 8000690:	0021      	movs	r1, r4
 8000692:	0018      	movs	r0, r3
 8000694:	f000 fcca 	bl	800102c <HAL_GPIO_WritePin>

  /*Configure GPIO pin Output Level */
  HAL_GPIO_WritePin(TXS_OE_GPIO_Port, TXS_OE_Pin, GPIO_PIN_SET);
 8000698:	26a0      	movs	r6, #160	@ 0xa0
 800069a:	05f6      	lsls	r6, r6, #23
 800069c:	2201      	movs	r2, #1
 800069e:	2102      	movs	r1, #2
 80006a0:	0030      	movs	r0, r6
 80006a2:	f000 fcc3 	bl	800102c <HAL_GPIO_WritePin>

  /*Configure GPIO pin Output Level */
  HAL_GPIO_WritePin(GPIOA, SHDN_170V_3V3_Pin|INS_EN_3V3_Pin|DIN_3V3_Pin|OE_3V3_Pin, GPIO_PIN_RESET);
 80006a6:	2200      	movs	r2, #0
 80006a8:	21f0      	movs	r1, #240	@ 0xf0
 80006aa:	0030      	movs	r0, r6
 80006ac:	f000 fcbe 	bl	800102c <HAL_GPIO_WritePin>

  /*Configure GPIO pin Output Level */
  HAL_GPIO_WritePin(GPIOB, RCK_3V3_Pin|SCK_3V3_Pin, GPIO_PIN_RESET);
 80006b0:	4b25      	ldr	r3, [pc, #148]	@ (8000748 <MX_GPIO_Init+0x108>)
 80006b2:	4698      	mov	r8, r3
 80006b4:	2200      	movs	r2, #0
 80006b6:	2103      	movs	r1, #3
 80006b8:	0018      	movs	r0, r3
 80006ba:	f000 fcb7 	bl	800102c <HAL_GPIO_WritePin>

  /*Configure GPIO pins : DIMM_LED_1_Pin DIMM_LED_2_Pin */
  GPIO_InitStruct.Pin = DIMM_LED_1_Pin|DIMM_LED_2_Pin;
 80006be:	9403      	str	r4, [sp, #12]
  GPIO_InitStruct.Mode = GPIO_MODE_OUTPUT_PP;
 80006c0:	9504      	str	r5, [sp, #16]
  GPIO_InitStruct.Pull = GPIO_NOPULL;
 80006c2:	2400      	movs	r4, #0
 80006c4:	9405      	str	r4, [sp, #20]
  GPIO_InitStruct.Speed = GPIO_SPEED_FREQ_LOW;
 80006c6:	9406      	str	r4, [sp, #24]
  HAL_GPIO_Init(GPIOC, &GPIO_InitStruct);
 80006c8:	a903      	add	r1, sp, #12
 80006ca:	4648      	mov	r0, r9
 80006cc:	f000 fbf0 	bl	8000eb0 <HAL_GPIO_Init>

  /*Configure GPIO pins : BTN_4_Pin INT_SQW_Pin INT_OPT_Pin JDY_STAT_Pin
                           JDY_PWRC_Pin */
  GPIO_InitStruct.Pin = BTN_4_Pin|INT_SQW_Pin|INT_OPT_Pin|JDY_STAT_Pin
 80006d0:	4b1e      	ldr	r3, [pc, #120]	@ (800074c <MX_GPIO_Init+0x10c>)
 80006d2:	9303      	str	r3, [sp, #12]
                          |JDY_PWRC_Pin;
  GPIO_InitStruct.Mode = GPIO_MODE_INPUT;
 80006d4:	9404      	str	r4, [sp, #16]
  GPIO_InitStruct.Pull = GPIO_NOPULL;
 80006d6:	9405      	str	r4, [sp, #20]
  HAL_GPIO_Init(GPIOA, &GPIO_InitStruct);
 80006d8:	a903      	add	r1, sp, #12
 80006da:	0030      	movs	r0, r6
 80006dc:	f000 fbe8 	bl	8000eb0 <HAL_GPIO_Init>

  /*Configure GPIO pin : TXS_OE_Pin */
  GPIO_InitStruct.Pin = TXS_OE_Pin;
 80006e0:	9703      	str	r7, [sp, #12]
  GPIO_InitStruct.Mode = GPIO_MODE_OUTPUT_PP;
 80006e2:	9504      	str	r5, [sp, #16]
  GPIO_InitStruct.Pull = GPIO_PULLUP;
 80006e4:	9505      	str	r5, [sp, #20]
  GPIO_InitStruct.Speed = GPIO_SPEED_FREQ_LOW;
 80006e6:	9406      	str	r4, [sp, #24]
  HAL_GPIO_Init(TXS_OE_GPIO_Port, &GPIO_InitStruct);
 80006e8:	a903      	add	r1, sp, #12
 80006ea:	0030      	movs	r0, r6
 80006ec:	f000 fbe0 	bl	8000eb0 <HAL_GPIO_Init>

  /*Configure GPIO pin : SHDN_170V_3V3_Pin */
  GPIO_InitStruct.Pin = SHDN_170V_3V3_Pin;
 80006f0:	2310      	movs	r3, #16
 80006f2:	9303      	str	r3, [sp, #12]
  GPIO_InitStruct.Mode = GPIO_MODE_OUTPUT_PP;
 80006f4:	9504      	str	r5, [sp, #16]
  GPIO_InitStruct.Pull = GPIO_PULLDOWN;
 80006f6:	9705      	str	r7, [sp, #20]
  GPIO_InitStruct.Speed = GPIO_SPEED_FREQ_LOW;
 80006f8:	9406      	str	r4, [sp, #24]
  HAL_GPIO_Init(SHDN_170V_3V3_GPIO_Port, &GPIO_InitStruct);
 80006fa:	a903      	add	r1, sp, #12
 80006fc:	0030      	movs	r0, r6
 80006fe:	f000 fbd7 	bl	8000eb0 <HAL_GPIO_Init>

  /*Configure GPIO pins : INS_EN_3V3_Pin DIN_3V3_Pin OE_3V3_Pin */
  GPIO_InitStruct.Pin = INS_EN_3V3_Pin|DIN_3V3_Pin|OE_3V3_Pin;
 8000702:	23e0      	movs	r3, #224	@ 0xe0
 8000704:	9303      	str	r3, [sp, #12]
  GPIO_InitStruct.Mode = GPIO_MODE_OUTPUT_PP;
 8000706:	9504      	str	r5, [sp, #16]
  GPIO_InitStruct.Pull = GPIO_NOPULL;
 8000708:	9405      	str	r4, [sp, #20]
  GPIO_InitStruct.Speed = GPIO_SPEED_FREQ_LOW;
 800070a:	9406      	str	r4, [sp, #24]
  HAL_GPIO_Init(GPIOA, &GPIO_InitStruct);
 800070c:	a903      	add	r1, sp, #12
 800070e:	0030      	movs	r0, r6
 8000710:	f000 fbce 	bl	8000eb0 <HAL_GPIO_Init>

  /*Configure GPIO pins : RCK_3V3_Pin SCK_3V3_Pin */
  GPIO_InitStruct.Pin = RCK_3V3_Pin|SCK_3V3_Pin;
 8000714:	2303      	movs	r3, #3
 8000716:	9303      	str	r3, [sp, #12]
  GPIO_InitStruct.Mode = GPIO_MODE_OUTPUT_PP;
 8000718:	9504      	str	r5, [sp, #16]
  GPIO_InitStruct.Pull = GPIO_NOPULL;
 800071a:	9405      	str	r4, [sp, #20]
  GPIO_InitStruct.Speed = GPIO_SPEED_FREQ_LOW;
 800071c:	9406      	str	r4, [sp, #24]
  HAL_GPIO_Init(GPIOB, &GPIO_InitStruct);
 800071e:	a903      	add	r1, sp, #12
 8000720:	4640      	mov	r0, r8
 8000722:	f000 fbc5 	bl	8000eb0 <HAL_GPIO_Init>

  /*Configure GPIO pins : BTN_3_Pin BTN_2_Pin BTN_1_Pin */
  GPIO_InitStruct.Pin = BTN_3_Pin|BTN_2_Pin|BTN_1_Pin;
 8000726:	2338      	movs	r3, #56	@ 0x38
 8000728:	9303      	str	r3, [sp, #12]
  GPIO_InitStruct.Mode = GPIO_MODE_INPUT;
 800072a:	9404      	str	r4, [sp, #16]
  GPIO_InitStruct.Pull = GPIO_NOPULL;
 800072c:	9405      	str	r4, [sp, #20]
  HAL_GPIO_Init(GPIOB, &GPIO_InitStruct);
 800072e:	a903      	add	r1, sp, #12
 8000730:	4640      	mov	r0, r8
 8000732:	f000 fbbd 	bl	8000eb0 <HAL_GPIO_Init>

/* USER CODE BEGIN MX_GPIO_Init_2 */
/* USER CODE END MX_GPIO_Init_2 */
}
 8000736:	b009      	add	sp, #36	@ 0x24
 8000738:	bcc0      	pop	{r6, r7}
 800073a:	46b9      	mov	r9, r7
 800073c:	46b0      	mov	r8, r6
 800073e:	bdf0      	pop	{r4, r5, r6, r7, pc}
 8000740:	40021000 	.word	0x40021000
 8000744:	50000800 	.word	0x50000800
 8000748:	50000400 	.word	0x50000400
 800074c:	00009901 	.word	0x00009901

08000750 <Error_Handler>:
  \details Disables IRQ interrupts by setting the I-bit in the CPSR.
           Can only be executed in Privileged modes.
 */
__STATIC_FORCEINLINE void __disable_irq(void)
{
  __ASM volatile ("cpsid i" : : : "memory");
 8000750:	b672      	cpsid	i
void Error_Handler(void)
{
  /* USER CODE BEGIN Error_Handler_Debug */
  /* User can add his own implementation to report the HAL error return state */
  __disable_irq();
  while (1)
 8000752:	e7fe      	b.n	8000752 <Error_Handler+0x2>

08000754 <MX_I2C1_Init>:
{
 8000754:	b510      	push	{r4, lr}
  hi2c1.Instance = I2C1;
 8000756:	4812      	ldr	r0, [pc, #72]	@ (80007a0 <MX_I2C1_Init+0x4c>)
 8000758:	4b12      	ldr	r3, [pc, #72]	@ (80007a4 <MX_I2C1_Init+0x50>)
 800075a:	6003      	str	r3, [r0, #0]
  hi2c1.Init.Timing = 0x00707CBB;
 800075c:	4b12      	ldr	r3, [pc, #72]	@ (80007a8 <MX_I2C1_Init+0x54>)
 800075e:	6043      	str	r3, [r0, #4]
  hi2c1.Init.OwnAddress1 = 0;
 8000760:	2300      	movs	r3, #0
 8000762:	6083      	str	r3, [r0, #8]
  hi2c1.Init.AddressingMode = I2C_ADDRESSINGMODE_7BIT;
 8000764:	2201      	movs	r2, #1
 8000766:	60c2      	str	r2, [r0, #12]
  hi2c1.Init.DualAddressMode = I2C_DUALADDRESS_DISABLE;
 8000768:	6103      	str	r3, [r0, #16]
  hi2c1.Init.OwnAddress2 = 0;
 800076a:	6143      	str	r3, [r0, #20]
  hi2c1.Init.OwnAddress2Masks = I2C_OA2_NOMASK;
 800076c:	6183      	str	r3, [r0, #24]
  hi2c1.Init.GeneralCallMode = I2C_GENERALCALL_DISABLE;
 800076e:	61c3      	str	r3, [r0, #28]
  hi2c1.Init.NoStretchMode = I2C_NOSTRETCH_DISABLE;
 8000770:	6203      	str	r3, [r0, #32]
  if (HAL_I2C_Init(&hi2c1) != HAL_OK)
 8000772:	f000 fe03 	bl	800137c <HAL_I2C_Init>
 8000776:	2800      	cmp	r0, #0
 8000778:	d10c      	bne.n	8000794 <MX_I2C1_Init+0x40>
  if (HAL_I2CEx_ConfigAnalogFilter(&hi2c1, I2C_ANALOGFILTER_ENABLE) != HAL_OK)
 800077a:	4809      	ldr	r0, [pc, #36]	@ (80007a0 <MX_I2C1_Init+0x4c>)
 800077c:	2100      	movs	r1, #0
 800077e:	f000 ffd7 	bl	8001730 <HAL_I2CEx_ConfigAnalogFilter>
 8000782:	2800      	cmp	r0, #0
 8000784:	d108      	bne.n	8000798 <MX_I2C1_Init+0x44>
  if (HAL_I2CEx_ConfigDigitalFilter(&hi2c1, 0) != HAL_OK)
 8000786:	4806      	ldr	r0, [pc, #24]	@ (80007a0 <MX_I2C1_Init+0x4c>)
 8000788:	2100      	movs	r1, #0
 800078a:	f000 fffd 	bl	8001788 <HAL_I2CEx_ConfigDigitalFilter>
 800078e:	2800      	cmp	r0, #0
 8000790:	d104      	bne.n	800079c <MX_I2C1_Init+0x48>
}
 8000792:	bd10      	pop	{r4, pc}
    Error_Handler();
 8000794:	f7ff ffdc 	bl	8000750 <Error_Handler>
    Error_Handler();
 8000798:	f7ff ffda 	bl	8000750 <Error_Handler>
    Error_Handler();
 800079c:	f7ff ffd8 	bl	8000750 <Error_Handler>
 80007a0:	20000188 	.word	0x20000188
 80007a4:	40005400 	.word	0x40005400
 80007a8:	00707cbb 	.word	0x00707cbb

080007ac <MX_LPUART1_UART_Init>:
{
 80007ac:	b510      	push	{r4, lr}
  hlpuart1.Instance = LPUART1;
 80007ae:	480b      	ldr	r0, [pc, #44]	@ (80007dc <MX_LPUART1_UART_Init+0x30>)
 80007b0:	4b0b      	ldr	r3, [pc, #44]	@ (80007e0 <MX_LPUART1_UART_Init+0x34>)
 80007b2:	6003      	str	r3, [r0, #0]
  hlpuart1.Init.BaudRate = 209700;
 80007b4:	4b0b      	ldr	r3, [pc, #44]	@ (80007e4 <MX_LPUART1_UART_Init+0x38>)
 80007b6:	6043      	str	r3, [r0, #4]
  hlpuart1.Init.WordLength = UART_WORDLENGTH_7B;
 80007b8:	2380      	movs	r3, #128	@ 0x80
 80007ba:	055b      	lsls	r3, r3, #21
 80007bc:	6083      	str	r3, [r0, #8]
  hlpuart1.Init.StopBits = UART_STOPBITS_1;
 80007be:	2300      	movs	r3, #0
 80007c0:	60c3      	str	r3, [r0, #12]
  hlpuart1.Init.Parity = UART_PARITY_NONE;
 80007c2:	6103      	str	r3, [r0, #16]
  hlpuart1.Init.Mode = UART_MODE_TX_RX;
 80007c4:	220c      	movs	r2, #12
 80007c6:	6142      	str	r2, [r0, #20]
  hlpuart1.Init.HwFlowCtl = UART_HWCONTROL_NONE;
 80007c8:	6183      	str	r3, [r0, #24]
  hlpuart1.Init.OneBitSampling = UART_ONE_BIT_SAMPLE_DISABLE;
 80007ca:	6203      	str	r3, [r0, #32]
  hlpuart1.AdvancedInit.AdvFeatureInit = UART_ADVFEATURE_NO_INIT;
 80007cc:	6243      	str	r3, [r0, #36]	@ 0x24
  if (HAL_UART_Init(&hlpuart1) != HAL_OK)
 80007ce:	f001 fff9 	bl	80027c4 <HAL_UART_Init>
 80007d2:	2800      	cmp	r0, #0
 80007d4:	d100      	bne.n	80007d8 <MX_LPUART1_UART_Init+0x2c>
}
 80007d6:	bd10      	pop	{r4, pc}
    Error_Handler();
 80007d8:	f7ff ffba 	bl	8000750 <Error_Handler>
 80007dc:	20000100 	.word	0x20000100
 80007e0:	40004800 	.word	0x40004800
 80007e4:	00033324 	.word	0x00033324

080007e8 <MX_USART2_UART_Init>:
{
 80007e8:	b510      	push	{r4, lr}
  huart2.Instance = USART2;
 80007ea:	480b      	ldr	r0, [pc, #44]	@ (8000818 <MX_USART2_UART_Init+0x30>)
 80007ec:	4b0b      	ldr	r3, [pc, #44]	@ (800081c <MX_USART2_UART_Init+0x34>)
 80007ee:	6003      	str	r3, [r0, #0]
  huart2.Init.BaudRate = 115200;
 80007f0:	23e1      	movs	r3, #225	@ 0xe1
 80007f2:	025b      	lsls	r3, r3, #9
 80007f4:	6043      	str	r3, [r0, #4]
  huart2.Init.WordLength = UART_WORDLENGTH_8B;
 80007f6:	2300      	movs	r3, #0
 80007f8:	6083      	str	r3, [r0, #8]
  huart2.Init.StopBits = UART_STOPBITS_1;
 80007fa:	60c3      	str	r3, [r0, #12]
  huart2.Init.Parity = UART_PARITY_NONE;
 80007fc:	6103      	str	r3, [r0, #16]
  huart2.Init.Mode = UART_MODE_TX_RX;
 80007fe:	220c      	movs	r2, #12
 8000800:	6142      	str	r2, [r0, #20]
  huart2.Init.HwFlowCtl = UART_HWCONTROL_NONE;
 8000802:	6183      	str	r3, [r0, #24]
  huart2.Init.OverSampling = UART_OVERSAMPLING_16;
 8000804:	61c3      	str	r3, [r0, #28]
  huart2.Init.OneBitSampling = UART_ONE_BIT_SAMPLE_DISABLE;
 8000806:	6203      	str	r3, [r0, #32]
  huart2.AdvancedInit.AdvFeatureInit = UART_ADVFEATURE_NO_INIT;
 8000808:	6243      	str	r3, [r0, #36]	@ 0x24
  if (HAL_UART_Init(&huart2) != HAL_OK)
 800080a:	f001 ffdb 	bl	80027c4 <HAL_UART_Init>
 800080e:	2800      	cmp	r0, #0
 8000810:	d100      	bne.n	8000814 <MX_USART2_UART_Init+0x2c>
}
 8000812:	bd10      	pop	{r4, pc}
    Error_Handler();
 8000814:	f7ff ff9c 	bl	8000750 <Error_Handler>
 8000818:	20000078 	.word	0x20000078
 800081c:	40004400 	.word	0x40004400

08000820 <MX_RTC_Init>:
{
 8000820:	b510      	push	{r4, lr}
  hrtc.Instance = RTC;
 8000822:	480a      	ldr	r0, [pc, #40]	@ (800084c <MX_RTC_Init+0x2c>)
 8000824:	4b0a      	ldr	r3, [pc, #40]	@ (8000850 <MX_RTC_Init+0x30>)
 8000826:	6003      	str	r3, [r0, #0]
  hrtc.Init.HourFormat = RTC_HOURFORMAT_24;
 8000828:	2300      	movs	r3, #0
 800082a:	6043      	str	r3, [r0, #4]
  hrtc.Init.AsynchPrediv = 127;
 800082c:	227f      	movs	r2, #127	@ 0x7f
 800082e:	6082      	str	r2, [r0, #8]
  hrtc.Init.SynchPrediv = 255;
 8000830:	3280      	adds	r2, #128	@ 0x80
 8000832:	60c2      	str	r2, [r0, #12]
  hrtc.Init.OutPut = RTC_OUTPUT_DISABLE;
 8000834:	6103      	str	r3, [r0, #16]
  hrtc.Init.OutPutRemap = RTC_OUTPUT_REMAP_NONE;
 8000836:	6143      	str	r3, [r0, #20]
  hrtc.Init.OutPutPolarity = RTC_OUTPUT_POLARITY_HIGH;
 8000838:	6183      	str	r3, [r0, #24]
  hrtc.Init.OutPutType = RTC_OUTPUT_TYPE_OPENDRAIN;
 800083a:	61c3      	str	r3, [r0, #28]
  if (HAL_RTC_Init(&hrtc) != HAL_OK)
 800083c:	f001 fcea 	bl	8002214 <HAL_RTC_Init>
 8000840:	2800      	cmp	r0, #0
 8000842:	d100      	bne.n	8000846 <MX_RTC_Init+0x26>
}
 8000844:	bd10      	pop	{r4, pc}
    Error_Handler();
 8000846:	f7ff ff83 	bl	8000750 <Error_Handler>
 800084a:	46c0      	nop			@ (mov r8, r8)
 800084c:	20000054 	.word	0x20000054
 8000850:	40002800 	.word	0x40002800

08000854 <SystemClock_Config>:
{
 8000854:	b500      	push	{lr}
 8000856:	b099      	sub	sp, #100	@ 0x64
  RCC_OscInitTypeDef RCC_OscInitStruct = {0};
 8000858:	2234      	movs	r2, #52	@ 0x34
 800085a:	2100      	movs	r1, #0
 800085c:	a80b      	add	r0, sp, #44	@ 0x2c
 800085e:	f001 ffe7 	bl	8002830 <memset>
  RCC_ClkInitTypeDef RCC_ClkInitStruct = {0};
 8000862:	2214      	movs	r2, #20
 8000864:	2100      	movs	r1, #0
 8000866:	a806      	add	r0, sp, #24
 8000868:	f001 ffe2 	bl	8002830 <memset>
  RCC_PeriphCLKInitTypeDef PeriphClkInit = {0};
 800086c:	2218      	movs	r2, #24
 800086e:	2100      	movs	r1, #0
 8000870:	4668      	mov	r0, sp
 8000872:	f001 ffdd 	bl	8002830 <memset>
  __HAL_PWR_VOLTAGESCALING_CONFIG(PWR_REGULATOR_VOLTAGE_SCALE1);
 8000876:	4921      	ldr	r1, [pc, #132]	@ (80008fc <SystemClock_Config+0xa8>)
 8000878:	680a      	ldr	r2, [r1, #0]
 800087a:	4b21      	ldr	r3, [pc, #132]	@ (8000900 <SystemClock_Config+0xac>)
 800087c:	401a      	ands	r2, r3
 800087e:	2380      	movs	r3, #128	@ 0x80
 8000880:	011b      	lsls	r3, r3, #4
 8000882:	4313      	orrs	r3, r2
 8000884:	600b      	str	r3, [r1, #0]
  RCC_OscInitStruct.OscillatorType = RCC_OSCILLATORTYPE_HSI|RCC_OSCILLATORTYPE_LSI;
 8000886:	230a      	movs	r3, #10
 8000888:	930b      	str	r3, [sp, #44]	@ 0x2c
  RCC_OscInitStruct.HSIState = RCC_HSI_ON;
 800088a:	3b09      	subs	r3, #9
 800088c:	930e      	str	r3, [sp, #56]	@ 0x38
  RCC_OscInitStruct.HSICalibrationValue = RCC_HSICALIBRATION_DEFAULT;
 800088e:	2210      	movs	r2, #16
 8000890:	920f      	str	r2, [sp, #60]	@ 0x3c
  RCC_OscInitStruct.LSIState = RCC_LSI_ON;
 8000892:	9310      	str	r3, [sp, #64]	@ 0x40
  RCC_OscInitStruct.PLL.PLLState = RCC_PLL_ON;
 8000894:	3301      	adds	r3, #1
 8000896:	9314      	str	r3, [sp, #80]	@ 0x50
  RCC_OscInitStruct.PLL.PLLSource = RCC_PLLSOURCE_HSI;
 8000898:	2300      	movs	r3, #0
 800089a:	9315      	str	r3, [sp, #84]	@ 0x54
  RCC_OscInitStruct.PLL.PLLMUL = RCC_PLLMUL_4;
 800089c:	2380      	movs	r3, #128	@ 0x80
 800089e:	02db      	lsls	r3, r3, #11
 80008a0:	9316      	str	r3, [sp, #88]	@ 0x58
  RCC_OscInitStruct.PLL.PLLDIV = RCC_PLLDIV_2;
 80008a2:	2380      	movs	r3, #128	@ 0x80
 80008a4:	03db      	lsls	r3, r3, #15
 80008a6:	9317      	str	r3, [sp, #92]	@ 0x5c
  if (HAL_RCC_OscConfig(&RCC_OscInitStruct) != HAL_OK)
 80008a8:	a80b      	add	r0, sp, #44	@ 0x2c
 80008aa:	f000 ffef 	bl	800188c <HAL_RCC_OscConfig>
 80008ae:	2800      	cmp	r0, #0
 80008b0:	d11d      	bne.n	80008ee <SystemClock_Config+0x9a>
  RCC_ClkInitStruct.ClockType = RCC_CLOCKTYPE_HCLK|RCC_CLOCKTYPE_SYSCLK
 80008b2:	230f      	movs	r3, #15
 80008b4:	9306      	str	r3, [sp, #24]
  RCC_ClkInitStruct.SYSCLKSource = RCC_SYSCLKSOURCE_PLLCLK;
 80008b6:	3b0c      	subs	r3, #12
 80008b8:	9307      	str	r3, [sp, #28]
  RCC_ClkInitStruct.AHBCLKDivider = RCC_SYSCLK_DIV1;
 80008ba:	2300      	movs	r3, #0
 80008bc:	9308      	str	r3, [sp, #32]
  RCC_ClkInitStruct.APB1CLKDivider = RCC_HCLK_DIV1;
 80008be:	9309      	str	r3, [sp, #36]	@ 0x24
  RCC_ClkInitStruct.APB2CLKDivider = RCC_HCLK_DIV1;
 80008c0:	930a      	str	r3, [sp, #40]	@ 0x28
  if (HAL_RCC_ClockConfig(&RCC_ClkInitStruct, FLASH_LATENCY_1) != HAL_OK)
 80008c2:	2101      	movs	r1, #1
 80008c4:	a806      	add	r0, sp, #24
 80008c6:	f001 fa6f 	bl	8001da8 <HAL_RCC_ClockConfig>
 80008ca:	2800      	cmp	r0, #0
 80008cc:	d111      	bne.n	80008f2 <SystemClock_Config+0x9e>
  PeriphClkInit.PeriphClockSelection = RCC_PERIPHCLK_USART2|RCC_PERIPHCLK_LPUART1
 80008ce:	232e      	movs	r3, #46	@ 0x2e
 80008d0:	9300      	str	r3, [sp, #0]
  PeriphClkInit.Usart2ClockSelection = RCC_USART2CLKSOURCE_PCLK1;
 80008d2:	2300      	movs	r3, #0
 80008d4:	9302      	str	r3, [sp, #8]
  PeriphClkInit.Lpuart1ClockSelection = RCC_LPUART1CLKSOURCE_PCLK1;
 80008d6:	9303      	str	r3, [sp, #12]
  PeriphClkInit.I2c1ClockSelection = RCC_I2C1CLKSOURCE_PCLK1;
 80008d8:	9304      	str	r3, [sp, #16]
  PeriphClkInit.RTCClockSelection = RCC_RTCCLKSOURCE_LSI;
 80008da:	2380      	movs	r3, #128	@ 0x80
 80008dc:	029b      	lsls	r3, r3, #10
 80008de:	9301      	str	r3, [sp, #4]
  if (HAL_RCCEx_PeriphCLKConfig(&PeriphClkInit) != HAL_OK)
 80008e0:	4668      	mov	r0, sp
 80008e2:	f001 fb73 	bl	8001fcc <HAL_RCCEx_PeriphCLKConfig>
 80008e6:	2800      	cmp	r0, #0
 80008e8:	d105      	bne.n	80008f6 <SystemClock_Config+0xa2>
}
 80008ea:	b019      	add	sp, #100	@ 0x64
 80008ec:	bd00      	pop	{pc}
    Error_Handler();
 80008ee:	f7ff ff2f 	bl	8000750 <Error_Handler>
    Error_Handler();
 80008f2:	f7ff ff2d 	bl	8000750 <Error_Handler>
    Error_Handler();
 80008f6:	f7ff ff2b 	bl	8000750 <Error_Handler>
 80008fa:	46c0      	nop			@ (mov r8, r8)
 80008fc:	40007000 	.word	0x40007000
 8000900:	ffffe7ff 	.word	0xffffe7ff

08000904 <main>:
{
 8000904:	b510      	push	{r4, lr}
  HAL_Init();
 8000906:	f000 fa47 	bl	8000d98 <HAL_Init>
  SystemClock_Config();
 800090a:	f7ff ffa3 	bl	8000854 <SystemClock_Config>
  MX_GPIO_Init();
 800090e:	f7ff fe97 	bl	8000640 <MX_GPIO_Init>
  MX_I2C1_Init();
 8000912:	f7ff ff1f 	bl	8000754 <MX_I2C1_Init>
  MX_LPUART1_UART_Init();
 8000916:	f7ff ff49 	bl	80007ac <MX_LPUART1_UART_Init>
  MX_USART2_UART_Init();
 800091a:	f7ff ff65 	bl	80007e8 <MX_USART2_UART_Init>
  MX_RTC_Init();
 800091e:	f7ff ff7f 	bl	8000820 <MX_RTC_Init>
  IN12_init();
 8000922:	f7ff fe61 	bl	80005e8 <IN12_init>
  DS3231_Init(&hi2c1);
 8000926:	480c      	ldr	r0, [pc, #48]	@ (8000958 <main+0x54>)
 8000928:	f000 f978 	bl	8000c1c <DS3231_Init>
	  h = DS3231_GetHour();
 800092c:	f000 f9c2 	bl	8000cb4 <DS3231_GetHour>
	  m = DS3231_GetMinute();
 8000930:	f000 f9c7 	bl	8000cc2 <DS3231_GetMinute>
 8000934:	0004      	movs	r4, r0
	  s = DS3231_GetSecond();
 8000936:	f000 f9cb 	bl	8000cd0 <DS3231_GetSecond>
 800093a:	0001      	movs	r1, r0
	  IN12_set_digit_pairs(m, s);
 800093c:	0020      	movs	r0, r4
 800093e:	f7ff fe35 	bl	80005ac <IN12_set_digit_pairs>
	  HAL_GPIO_TogglePin(INS_EN_3V3_GPIO_Port, INS_EN_3V3_Pin);
 8000942:	20a0      	movs	r0, #160	@ 0xa0
 8000944:	2120      	movs	r1, #32
 8000946:	05c0      	lsls	r0, r0, #23
 8000948:	f000 fb76 	bl	8001038 <HAL_GPIO_TogglePin>
	  HAL_Delay(500);
 800094c:	20fa      	movs	r0, #250	@ 0xfa
 800094e:	0040      	lsls	r0, r0, #1
 8000950:	f000 fa48 	bl	8000de4 <HAL_Delay>
  while (1)
 8000954:	e7ea      	b.n	800092c <main+0x28>
 8000956:	46c0      	nop			@ (mov r8, r8)
 8000958:	20000188 	.word	0x20000188

0800095c <HAL_MspInit>:
{
  /* USER CODE BEGIN MspInit 0 */

  /* USER CODE END MspInit 0 */

  __HAL_RCC_SYSCFG_CLK_ENABLE();
 800095c:	4b05      	ldr	r3, [pc, #20]	@ (8000974 <HAL_MspInit+0x18>)
 800095e:	6b5a      	ldr	r2, [r3, #52]	@ 0x34
 8000960:	2101      	movs	r1, #1
 8000962:	430a      	orrs	r2, r1
 8000964:	635a      	str	r2, [r3, #52]	@ 0x34
  __HAL_RCC_PWR_CLK_ENABLE();
 8000966:	6b99      	ldr	r1, [r3, #56]	@ 0x38
 8000968:	2280      	movs	r2, #128	@ 0x80
 800096a:	0552      	lsls	r2, r2, #21
 800096c:	430a      	orrs	r2, r1
 800096e:	639a      	str	r2, [r3, #56]	@ 0x38
  /* System interrupt init*/

  /* USER CODE BEGIN MspInit 1 */

  /* USER CODE END MspInit 1 */
}
 8000970:	4770      	bx	lr
 8000972:	46c0      	nop			@ (mov r8, r8)
 8000974:	40021000 	.word	0x40021000

08000978 <HAL_I2C_MspInit>:
* This function configures the hardware resources used in this example
* @param hi2c: I2C handle pointer
* @retval None
*/
void HAL_I2C_MspInit(I2C_HandleTypeDef* hi2c)
{
 8000978:	b510      	push	{r4, lr}
 800097a:	b086      	sub	sp, #24
 800097c:	0004      	movs	r4, r0
  GPIO_InitTypeDef GPIO_InitStruct = {0};
 800097e:	2214      	movs	r2, #20
 8000980:	2100      	movs	r1, #0
 8000982:	a801      	add	r0, sp, #4
 8000984:	f001 ff54 	bl	8002830 <memset>
  if(hi2c->Instance==I2C1)
 8000988:	6822      	ldr	r2, [r4, #0]
 800098a:	4b10      	ldr	r3, [pc, #64]	@ (80009cc <HAL_I2C_MspInit+0x54>)
 800098c:	429a      	cmp	r2, r3
 800098e:	d001      	beq.n	8000994 <HAL_I2C_MspInit+0x1c>
  /* USER CODE BEGIN I2C1_MspInit 1 */

  /* USER CODE END I2C1_MspInit 1 */
  }

}
 8000990:	b006      	add	sp, #24
 8000992:	bd10      	pop	{r4, pc}
    __HAL_RCC_GPIOA_CLK_ENABLE();
 8000994:	4c0e      	ldr	r4, [pc, #56]	@ (80009d0 <HAL_I2C_MspInit+0x58>)
 8000996:	6ae2      	ldr	r2, [r4, #44]	@ 0x2c
 8000998:	2301      	movs	r3, #1
 800099a:	431a      	orrs	r2, r3
 800099c:	62e2      	str	r2, [r4, #44]	@ 0x2c
 800099e:	6ae2      	ldr	r2, [r4, #44]	@ 0x2c
 80009a0:	401a      	ands	r2, r3
 80009a2:	9200      	str	r2, [sp, #0]
 80009a4:	9a00      	ldr	r2, [sp, #0]
    GPIO_InitStruct.Pin = GPIO_PIN_9|GPIO_PIN_10;
 80009a6:	22c0      	movs	r2, #192	@ 0xc0
 80009a8:	00d2      	lsls	r2, r2, #3
 80009aa:	9201      	str	r2, [sp, #4]
    GPIO_InitStruct.Mode = GPIO_MODE_AF_OD;
 80009ac:	2212      	movs	r2, #18
 80009ae:	9202      	str	r2, [sp, #8]
    GPIO_InitStruct.Speed = GPIO_SPEED_FREQ_VERY_HIGH;
 80009b0:	3a0f      	subs	r2, #15
 80009b2:	9204      	str	r2, [sp, #16]
    GPIO_InitStruct.Alternate = GPIO_AF1_I2C1;
 80009b4:	9305      	str	r3, [sp, #20]
    HAL_GPIO_Init(GPIOA, &GPIO_InitStruct);
 80009b6:	20a0      	movs	r0, #160	@ 0xa0
 80009b8:	a901      	add	r1, sp, #4
 80009ba:	05c0      	lsls	r0, r0, #23
 80009bc:	f000 fa78 	bl	8000eb0 <HAL_GPIO_Init>
    __HAL_RCC_I2C1_CLK_ENABLE();
 80009c0:	6ba2      	ldr	r2, [r4, #56]	@ 0x38
 80009c2:	2380      	movs	r3, #128	@ 0x80
 80009c4:	039b      	lsls	r3, r3, #14
 80009c6:	4313      	orrs	r3, r2
 80009c8:	63a3      	str	r3, [r4, #56]	@ 0x38
}
 80009ca:	e7e1      	b.n	8000990 <HAL_I2C_MspInit+0x18>
 80009cc:	40005400 	.word	0x40005400
 80009d0:	40021000 	.word	0x40021000

080009d4 <HAL_UART_MspInit>:
* This function configures the hardware resources used in this example
* @param huart: UART handle pointer
* @retval None
*/
void HAL_UART_MspInit(UART_HandleTypeDef* huart)
{
 80009d4:	b510      	push	{r4, lr}
 80009d6:	b088      	sub	sp, #32
 80009d8:	0004      	movs	r4, r0
  GPIO_InitTypeDef GPIO_InitStruct = {0};
 80009da:	2214      	movs	r2, #20
 80009dc:	2100      	movs	r1, #0
 80009de:	a803      	add	r0, sp, #12
 80009e0:	f001 ff26 	bl	8002830 <memset>
  if(huart->Instance==LPUART1)
 80009e4:	6823      	ldr	r3, [r4, #0]
 80009e6:	4a1e      	ldr	r2, [pc, #120]	@ (8000a60 <HAL_UART_MspInit+0x8c>)
 80009e8:	4293      	cmp	r3, r2
 80009ea:	d004      	beq.n	80009f6 <HAL_UART_MspInit+0x22>

  /* USER CODE BEGIN LPUART1_MspInit 1 */

  /* USER CODE END LPUART1_MspInit 1 */
  }
  else if(huart->Instance==USART2)
 80009ec:	4a1d      	ldr	r2, [pc, #116]	@ (8000a64 <HAL_UART_MspInit+0x90>)
 80009ee:	4293      	cmp	r3, r2
 80009f0:	d01d      	beq.n	8000a2e <HAL_UART_MspInit+0x5a>
  /* USER CODE BEGIN USART2_MspInit 1 */

  /* USER CODE END USART2_MspInit 1 */
  }

}
 80009f2:	b008      	add	sp, #32
 80009f4:	bd10      	pop	{r4, pc}
    __HAL_RCC_LPUART1_CLK_ENABLE();
 80009f6:	4b1c      	ldr	r3, [pc, #112]	@ (8000a68 <HAL_UART_MspInit+0x94>)
 80009f8:	6b99      	ldr	r1, [r3, #56]	@ 0x38
 80009fa:	2280      	movs	r2, #128	@ 0x80
 80009fc:	02d2      	lsls	r2, r2, #11
 80009fe:	430a      	orrs	r2, r1
 8000a00:	639a      	str	r2, [r3, #56]	@ 0x38
    __HAL_RCC_GPIOA_CLK_ENABLE();
 8000a02:	6ad9      	ldr	r1, [r3, #44]	@ 0x2c
 8000a04:	2201      	movs	r2, #1
 8000a06:	4311      	orrs	r1, r2
 8000a08:	62d9      	str	r1, [r3, #44]	@ 0x2c
 8000a0a:	6adb      	ldr	r3, [r3, #44]	@ 0x2c
 8000a0c:	401a      	ands	r2, r3
 8000a0e:	9201      	str	r2, [sp, #4]
 8000a10:	9b01      	ldr	r3, [sp, #4]
    GPIO_InitStruct.Pin = GPIO_PIN_2|GPIO_PIN_3;
 8000a12:	230c      	movs	r3, #12
 8000a14:	9303      	str	r3, [sp, #12]
    GPIO_InitStruct.Mode = GPIO_MODE_AF_PP;
 8000a16:	3b0a      	subs	r3, #10
 8000a18:	9304      	str	r3, [sp, #16]
    GPIO_InitStruct.Speed = GPIO_SPEED_FREQ_VERY_HIGH;
 8000a1a:	3301      	adds	r3, #1
 8000a1c:	9306      	str	r3, [sp, #24]
    GPIO_InitStruct.Alternate = GPIO_AF6_LPUART1;
 8000a1e:	3303      	adds	r3, #3
 8000a20:	9307      	str	r3, [sp, #28]
    HAL_GPIO_Init(GPIOA, &GPIO_InitStruct);
 8000a22:	20a0      	movs	r0, #160	@ 0xa0
 8000a24:	a903      	add	r1, sp, #12
 8000a26:	05c0      	lsls	r0, r0, #23
 8000a28:	f000 fa42 	bl	8000eb0 <HAL_GPIO_Init>
 8000a2c:	e7e1      	b.n	80009f2 <HAL_UART_MspInit+0x1e>
    __HAL_RCC_USART2_CLK_ENABLE();
 8000a2e:	4b0e      	ldr	r3, [pc, #56]	@ (8000a68 <HAL_UART_MspInit+0x94>)
 8000a30:	6b99      	ldr	r1, [r3, #56]	@ 0x38
 8000a32:	2280      	movs	r2, #128	@ 0x80
 8000a34:	0292      	lsls	r2, r2, #10
 8000a36:	430a      	orrs	r2, r1
 8000a38:	639a      	str	r2, [r3, #56]	@ 0x38
    __HAL_RCC_GPIOB_CLK_ENABLE();
 8000a3a:	6ad9      	ldr	r1, [r3, #44]	@ 0x2c
 8000a3c:	2202      	movs	r2, #2
 8000a3e:	4311      	orrs	r1, r2
 8000a40:	62d9      	str	r1, [r3, #44]	@ 0x2c
 8000a42:	6adb      	ldr	r3, [r3, #44]	@ 0x2c
 8000a44:	4013      	ands	r3, r2
 8000a46:	9302      	str	r3, [sp, #8]
 8000a48:	9b02      	ldr	r3, [sp, #8]
    GPIO_InitStruct.Pin = GPIO_PIN_6|GPIO_PIN_7;
 8000a4a:	23c0      	movs	r3, #192	@ 0xc0
 8000a4c:	9303      	str	r3, [sp, #12]
    GPIO_InitStruct.Mode = GPIO_MODE_AF_PP;
 8000a4e:	9204      	str	r2, [sp, #16]
    GPIO_InitStruct.Speed = GPIO_SPEED_FREQ_VERY_HIGH;
 8000a50:	3bbd      	subs	r3, #189	@ 0xbd
 8000a52:	9306      	str	r3, [sp, #24]
    HAL_GPIO_Init(GPIOB, &GPIO_InitStruct);
 8000a54:	a903      	add	r1, sp, #12
 8000a56:	4805      	ldr	r0, [pc, #20]	@ (8000a6c <HAL_UART_MspInit+0x98>)
 8000a58:	f000 fa2a 	bl	8000eb0 <HAL_GPIO_Init>
}
 8000a5c:	e7c9      	b.n	80009f2 <HAL_UART_MspInit+0x1e>
 8000a5e:	46c0      	nop			@ (mov r8, r8)
 8000a60:	40004800 	.word	0x40004800
 8000a64:	40004400 	.word	0x40004400
 8000a68:	40021000 	.word	0x40021000
 8000a6c:	50000400 	.word	0x50000400

08000a70 <HAL_RTC_MspInit>:
* @param hrtc: RTC handle pointer
* @retval None
*/
void HAL_RTC_MspInit(RTC_HandleTypeDef* hrtc)
{
  if(hrtc->Instance==RTC)
 8000a70:	6802      	ldr	r2, [r0, #0]
 8000a72:	4b05      	ldr	r3, [pc, #20]	@ (8000a88 <HAL_RTC_MspInit+0x18>)
 8000a74:	429a      	cmp	r2, r3
 8000a76:	d000      	beq.n	8000a7a <HAL_RTC_MspInit+0xa>
  /* USER CODE BEGIN RTC_MspInit 1 */

  /* USER CODE END RTC_MspInit 1 */
  }

}
 8000a78:	4770      	bx	lr
    __HAL_RCC_RTC_ENABLE();
 8000a7a:	4a04      	ldr	r2, [pc, #16]	@ (8000a8c <HAL_RTC_MspInit+0x1c>)
 8000a7c:	6d11      	ldr	r1, [r2, #80]	@ 0x50
 8000a7e:	2380      	movs	r3, #128	@ 0x80
 8000a80:	02db      	lsls	r3, r3, #11
 8000a82:	430b      	orrs	r3, r1
 8000a84:	6513      	str	r3, [r2, #80]	@ 0x50
}
 8000a86:	e7f7      	b.n	8000a78 <HAL_RTC_MspInit+0x8>
 8000a88:	40002800 	.word	0x40002800
 8000a8c:	40021000 	.word	0x40021000

08000a90 <NMI_Handler>:
{
  /* USER CODE BEGIN NonMaskableInt_IRQn 0 */

  /* USER CODE END NonMaskableInt_IRQn 0 */
  /* USER CODE BEGIN NonMaskableInt_IRQn 1 */
  while (1)
 8000a90:	e7fe      	b.n	8000a90 <NMI_Handler>

08000a92 <HardFault_Handler>:
void HardFault_Handler(void)
{
  /* USER CODE BEGIN HardFault_IRQn 0 */

  /* USER CODE END HardFault_IRQn 0 */
  while (1)
 8000a92:	e7fe      	b.n	8000a92 <HardFault_Handler>

08000a94 <SVC_Handler>:

  /* USER CODE END SVC_IRQn 0 */
  /* USER CODE BEGIN SVC_IRQn 1 */

  /* USER CODE END SVC_IRQn 1 */
}
 8000a94:	4770      	bx	lr

08000a96 <PendSV_Handler>:

  /* USER CODE END PendSV_IRQn 0 */
  /* USER CODE BEGIN PendSV_IRQn 1 */

  /* USER CODE END PendSV_IRQn 1 */
}
 8000a96:	4770      	bx	lr

08000a98 <SysTick_Handler>:

/**
  * @brief This function handles System tick timer.
  */
void SysTick_Handler(void)
{
 8000a98:	b510      	push	{r4, lr}
  /* USER CODE BEGIN SysTick_IRQn 0 */

  /* USER CODE END SysTick_IRQn 0 */
  HAL_IncTick();
 8000a9a:	f000 f991 	bl	8000dc0 <HAL_IncTick>
  /* USER CODE BEGIN SysTick_IRQn 1 */

  /* USER CODE END SysTick_IRQn 1 */
}
 8000a9e:	bd10      	pop	{r4, pc}

08000aa0 <SystemInit>:
{
  /* Configure the Vector Table location add offset address ------------------*/
#if defined (USER_VECT_TAB_ADDRESS)
  SCB->VTOR = VECT_TAB_BASE_ADDRESS | VECT_TAB_OFFSET; /* Vector Table Relocation in Internal SRAM */
#endif /* USER_VECT_TAB_ADDRESS */
}
 8000aa0:	4770      	bx	lr
	...

08000aa4 <Reset_Handler>:

    .section  .text.Reset_Handler
  .weak  Reset_Handler
  .type  Reset_Handler, %function
Reset_Handler:  
   ldr   r0, =_estack
 8000aa4:	480d      	ldr	r0, [pc, #52]	@ (8000adc <LoopForever+0x2>)
   mov   sp, r0          /* set stack pointer */
 8000aa6:	4685      	mov	sp, r0
   
/* Call the clock system initialization function.*/
  bl  SystemInit
 8000aa8:	f7ff fffa 	bl	8000aa0 <SystemInit>

/* Copy the data segment initializers from flash to SRAM */
  ldr r0, =_sdata
 8000aac:	480c      	ldr	r0, [pc, #48]	@ (8000ae0 <LoopForever+0x6>)
  ldr r1, =_edata
 8000aae:	490d      	ldr	r1, [pc, #52]	@ (8000ae4 <LoopForever+0xa>)
  ldr r2, =_sidata
 8000ab0:	4a0d      	ldr	r2, [pc, #52]	@ (8000ae8 <LoopForever+0xe>)
  movs r3, #0
 8000ab2:	2300      	movs	r3, #0
  b LoopCopyDataInit
 8000ab4:	e002      	b.n	8000abc <LoopCopyDataInit>

08000ab6 <CopyDataInit>:

CopyDataInit:
  ldr r4, [r2, r3]
 8000ab6:	58d4      	ldr	r4, [r2, r3]
  str r4, [r0, r3]
 8000ab8:	50c4      	str	r4, [r0, r3]
  adds r3, r3, #4
 8000aba:	3304      	adds	r3, #4

08000abc <LoopCopyDataInit>:

LoopCopyDataInit:
  adds r4, r0, r3
 8000abc:	18c4      	adds	r4, r0, r3
  cmp r4, r1
 8000abe:	428c      	cmp	r4, r1
  bcc CopyDataInit
 8000ac0:	d3f9      	bcc.n	8000ab6 <CopyDataInit>
  
/* Zero fill the bss segment. */
  ldr r2, =_sbss
 8000ac2:	4a0a      	ldr	r2, [pc, #40]	@ (8000aec <LoopForever+0x12>)
  ldr r4, =_ebss
 8000ac4:	4c0a      	ldr	r4, [pc, #40]	@ (8000af0 <LoopForever+0x16>)
  movs r3, #0
 8000ac6:	2300      	movs	r3, #0
  b LoopFillZerobss
 8000ac8:	e001      	b.n	8000ace <LoopFillZerobss>

08000aca <FillZerobss>:

FillZerobss:
  str  r3, [r2]
 8000aca:	6013      	str	r3, [r2, #0]
  adds r2, r2, #4
 8000acc:	3204      	adds	r2, #4

08000ace <LoopFillZerobss>:

LoopFillZerobss:
  cmp r2, r4
 8000ace:	42a2      	cmp	r2, r4
  bcc FillZerobss
 8000ad0:	d3fb      	bcc.n	8000aca <FillZerobss>

/* Call static constructors */
    bl __libc_init_array
 8000ad2:	f001 feb5 	bl	8002840 <__libc_init_array>
/* Call the application's entry point.*/
  bl  main
 8000ad6:	f7ff ff15 	bl	8000904 <main>

08000ada <LoopForever>:

LoopForever:
    b LoopForever
 8000ada:	e7fe      	b.n	8000ada <LoopForever>
   ldr   r0, =_estack
 8000adc:	20002000 	.word	0x20002000
  ldr r0, =_sdata
 8000ae0:	20000000 	.word	0x20000000
  ldr r1, =_edata
 8000ae4:	20000020 	.word	0x20000020
  ldr r2, =_sidata
 8000ae8:	0800291c 	.word	0x0800291c
  ldr r2, =_sbss
 8000aec:	20000020 	.word	0x20000020
  ldr r4, =_ebss
 8000af0:	200001e4 	.word	0x200001e4

08000af4 <ADC1_COMP_IRQHandler>:
 * @retval : None
*/
    .section  .text.Default_Handler,"ax",%progbits
Default_Handler:
Infinite_Loop:
  b  Infinite_Loop
 8000af4:	e7fe      	b.n	8000af4 <ADC1_COMP_IRQHandler>
	...

08000af8 <DS3231_SetRegByte>:
/**
 * @brief Set the byte in the designated DS3231 register to value.
 * @param regAddr Register address to write.
 * @param val Value to set, 0 to 255.
 */
void DS3231_SetRegByte(uint8_t regAddr, uint8_t val) {
 8000af8:	b500      	push	{lr}
 8000afa:	b085      	sub	sp, #20
	uint8_t bytes[2] = { regAddr, val };
 8000afc:	466b      	mov	r3, sp
 8000afe:	7318      	strb	r0, [r3, #12]
 8000b00:	7359      	strb	r1, [r3, #13]
	HAL_I2C_Master_Transmit(_ds3231_ui2c, DS3231_I2C_ADDR << 1, bytes, 2, DS3231_TIMEOUT);
 8000b02:	4b06      	ldr	r3, [pc, #24]	@ (8000b1c <DS3231_SetRegByte+0x24>)
 8000b04:	6818      	ldr	r0, [r3, #0]
 8000b06:	2301      	movs	r3, #1
 8000b08:	425b      	negs	r3, r3
 8000b0a:	9300      	str	r3, [sp, #0]
 8000b0c:	3303      	adds	r3, #3
 8000b0e:	aa03      	add	r2, sp, #12
 8000b10:	21d0      	movs	r1, #208	@ 0xd0
 8000b12:	f000 fc99 	bl	8001448 <HAL_I2C_Master_Transmit>
}
 8000b16:	b005      	add	sp, #20
 8000b18:	bd00      	pop	{pc}
 8000b1a:	46c0      	nop			@ (mov r8, r8)
 8000b1c:	200001dc 	.word	0x200001dc

08000b20 <DS3231_GetRegByte>:
/**
 * @brief Gets the byte in the designated DS3231 register.
 * @param regAddr Register address to read.
 * @return Value stored in the register, 0 to 255.
 */
uint8_t DS3231_GetRegByte(uint8_t regAddr) {
 8000b20:	b570      	push	{r4, r5, r6, lr}
 8000b22:	b086      	sub	sp, #24
 8000b24:	220f      	movs	r2, #15
 8000b26:	446a      	add	r2, sp
 8000b28:	7010      	strb	r0, [r2, #0]
	uint8_t val;
	HAL_I2C_Master_Transmit(_ds3231_ui2c, DS3231_I2C_ADDR << 1, &regAddr, 1, DS3231_TIMEOUT);
 8000b2a:	4e0a      	ldr	r6, [pc, #40]	@ (8000b54 <DS3231_GetRegByte+0x34>)
 8000b2c:	6830      	ldr	r0, [r6, #0]
 8000b2e:	2501      	movs	r5, #1
 8000b30:	426d      	negs	r5, r5
 8000b32:	9500      	str	r5, [sp, #0]
 8000b34:	2301      	movs	r3, #1
 8000b36:	21d0      	movs	r1, #208	@ 0xd0
 8000b38:	f000 fc86 	bl	8001448 <HAL_I2C_Master_Transmit>
	HAL_I2C_Master_Receive(_ds3231_ui2c, DS3231_I2C_ADDR << 1, &val, 1, DS3231_TIMEOUT);
 8000b3c:	2417      	movs	r4, #23
 8000b3e:	446c      	add	r4, sp
 8000b40:	6830      	ldr	r0, [r6, #0]
 8000b42:	9500      	str	r5, [sp, #0]
 8000b44:	2301      	movs	r3, #1
 8000b46:	0022      	movs	r2, r4
 8000b48:	21d0      	movs	r1, #208	@ 0xd0
 8000b4a:	f000 fd37 	bl	80015bc <HAL_I2C_Master_Receive>
	return val;
 8000b4e:	7820      	ldrb	r0, [r4, #0]
}
 8000b50:	b006      	add	sp, #24
 8000b52:	bd70      	pop	{r4, r5, r6, pc}
 8000b54:	200001dc 	.word	0x200001dc

08000b58 <DS3231_SetInterruptMode>:

/**
 * @brief Set the interrupt mode to either alarm interrupt or square wave interrupt.
 * @param mode Interrupt mode to set, DS3231_ALARM_INTERRUPT or DS3231_SQUARE_WAVE_INTERRUPT.
 */
void DS3231_SetInterruptMode(DS3231_InterruptMode mode){
 8000b58:	b510      	push	{r4, lr}
 8000b5a:	0004      	movs	r4, r0
	uint8_t control = DS3231_GetRegByte(DS3231_REG_CONTROL);
 8000b5c:	200e      	movs	r0, #14
 8000b5e:	f7ff ffdf 	bl	8000b20 <DS3231_GetRegByte>
	DS3231_SetRegByte(DS3231_REG_CONTROL, (control & 0xfb) | ((mode & 0x01) << DS3231_INTCN));
 8000b62:	00a4      	lsls	r4, r4, #2
 8000b64:	2304      	movs	r3, #4
 8000b66:	4023      	ands	r3, r4
 8000b68:	2204      	movs	r2, #4
 8000b6a:	0001      	movs	r1, r0
 8000b6c:	4391      	bics	r1, r2
 8000b6e:	4319      	orrs	r1, r3
 8000b70:	b2c9      	uxtb	r1, r1
 8000b72:	200e      	movs	r0, #14
 8000b74:	f7ff ffc0 	bl	8000af8 <DS3231_SetRegByte>
}
 8000b78:	bd10      	pop	{r4, pc}

08000b7a <DS3231_EnableOscillator>:

/**
 * @brief Enables clock oscillator.
 * @param enable Enable, DS3231_ENABLED or DS3231_DISABLED.
 */
void DS3231_EnableOscillator(DS3231_State enable){
 8000b7a:	b510      	push	{r4, lr}
 8000b7c:	0004      	movs	r4, r0
	uint8_t control = DS3231_GetRegByte(DS3231_REG_CONTROL);
 8000b7e:	200e      	movs	r0, #14
 8000b80:	f7ff ffce 	bl	8000b20 <DS3231_GetRegByte>
	DS3231_SetRegByte(DS3231_REG_CONTROL, (control & 0x7f) | ((!enable & 0x01) << DS3231_EOSC));
 8000b84:	217f      	movs	r1, #127	@ 0x7f
 8000b86:	4001      	ands	r1, r0
 8000b88:	2c00      	cmp	r4, #0
 8000b8a:	d107      	bne.n	8000b9c <DS3231_EnableOscillator+0x22>
 8000b8c:	2380      	movs	r3, #128	@ 0x80
 8000b8e:	425b      	negs	r3, r3
 8000b90:	4319      	orrs	r1, r3
 8000b92:	b2c9      	uxtb	r1, r1
 8000b94:	200e      	movs	r0, #14
 8000b96:	f7ff ffaf 	bl	8000af8 <DS3231_SetRegByte>
}
 8000b9a:	bd10      	pop	{r4, pc}
	DS3231_SetRegByte(DS3231_REG_CONTROL, (control & 0x7f) | ((!enable & 0x01) << DS3231_EOSC));
 8000b9c:	2300      	movs	r3, #0
 8000b9e:	e7f7      	b.n	8000b90 <DS3231_EnableOscillator+0x16>

08000ba0 <DS3231_EnableAlarm2>:

/**
 * @brief Enables alarm 2.
 * @param enable Enable, DS3231_ENABLED or DS3231_DISABLED.
 */
void DS3231_EnableAlarm2(DS3231_State enable){
 8000ba0:	b510      	push	{r4, lr}
 8000ba2:	0004      	movs	r4, r0
	uint8_t control = DS3231_GetRegByte(DS3231_REG_CONTROL);
 8000ba4:	200e      	movs	r0, #14
 8000ba6:	f7ff ffbb 	bl	8000b20 <DS3231_GetRegByte>
	DS3231_SetRegByte(DS3231_REG_CONTROL, (control & 0xfd) | ((enable & 0x01) << DS3231_A2IE));
 8000baa:	0064      	lsls	r4, r4, #1
 8000bac:	2302      	movs	r3, #2
 8000bae:	4023      	ands	r3, r4
 8000bb0:	2202      	movs	r2, #2
 8000bb2:	0001      	movs	r1, r0
 8000bb4:	4391      	bics	r1, r2
 8000bb6:	4319      	orrs	r1, r3
 8000bb8:	b2c9      	uxtb	r1, r1
 8000bba:	200e      	movs	r0, #14
 8000bbc:	f7ff ff9c 	bl	8000af8 <DS3231_SetRegByte>
	DS3231_SetInterruptMode(DS3231_ALARM_INTERRUPT);
 8000bc0:	2001      	movs	r0, #1
 8000bc2:	f7ff ffc9 	bl	8000b58 <DS3231_SetInterruptMode>
}
 8000bc6:	bd10      	pop	{r4, pc}

08000bc8 <DS3231_ClearAlarm2Flag>:

/**
 * @brief Clears alarm 2 matched flag. Matched flags must be cleared before the next match or the next interrupt will be masked.
 */
void DS3231_ClearAlarm2Flag(){
 8000bc8:	b510      	push	{r4, lr}
	uint8_t status = DS3231_GetRegByte(DS3231_REG_STATUS) & 0xfd;
 8000bca:	200f      	movs	r0, #15
 8000bcc:	f7ff ffa8 	bl	8000b20 <DS3231_GetRegByte>
 8000bd0:	2302      	movs	r3, #2
 8000bd2:	4398      	bics	r0, r3
 8000bd4:	b2c1      	uxtb	r1, r0
	DS3231_SetRegByte(DS3231_REG_STATUS, status & ~(0x01 << DS3231_A2F));
 8000bd6:	200f      	movs	r0, #15
 8000bd8:	f7ff ff8e 	bl	8000af8 <DS3231_SetRegByte>
}
 8000bdc:	bd10      	pop	{r4, pc}

08000bde <DS3231_EnableAlarm1>:

/**
 * @brief Enables alarm 1.
 * @param enable Enable, DS3231_ENABLED or DS3231_DISABLED.
 */
void DS3231_EnableAlarm1(DS3231_State enable){
 8000bde:	b510      	push	{r4, lr}
 8000be0:	0004      	movs	r4, r0
	uint8_t control = DS3231_GetRegByte(DS3231_REG_CONTROL);
 8000be2:	200e      	movs	r0, #14
 8000be4:	f7ff ff9c 	bl	8000b20 <DS3231_GetRegByte>
	DS3231_SetRegByte(DS3231_REG_CONTROL, (control & 0xfe) | ((enable & 0x01) << DS3231_A1IE));
 8000be8:	2301      	movs	r3, #1
 8000bea:	0001      	movs	r1, r0
 8000bec:	4399      	bics	r1, r3
 8000bee:	2001      	movs	r0, #1
 8000bf0:	4020      	ands	r0, r4
 8000bf2:	4301      	orrs	r1, r0
 8000bf4:	b2c9      	uxtb	r1, r1
 8000bf6:	200e      	movs	r0, #14
 8000bf8:	f7ff ff7e 	bl	8000af8 <DS3231_SetRegByte>
	DS3231_SetInterruptMode(DS3231_ALARM_INTERRUPT);
 8000bfc:	2001      	movs	r0, #1
 8000bfe:	f7ff ffab 	bl	8000b58 <DS3231_SetInterruptMode>
}
 8000c02:	bd10      	pop	{r4, pc}

08000c04 <DS3231_ClearAlarm1Flag>:

/**
 * @brief Clears alarm 1 matched flag. Matched flags must be cleared before the next match or the next interrupt will be masked.
 */
void DS3231_ClearAlarm1Flag(){
 8000c04:	b510      	push	{r4, lr}
	uint8_t status = DS3231_GetRegByte(DS3231_REG_STATUS) & 0xfe;
 8000c06:	200f      	movs	r0, #15
 8000c08:	f7ff ff8a 	bl	8000b20 <DS3231_GetRegByte>
 8000c0c:	2301      	movs	r3, #1
 8000c0e:	4398      	bics	r0, r3
 8000c10:	b2c1      	uxtb	r1, r0
	DS3231_SetRegByte(DS3231_REG_STATUS, status & ~(0x01 << DS3231_A1F));
 8000c12:	200f      	movs	r0, #15
 8000c14:	f7ff ff70 	bl	8000af8 <DS3231_SetRegByte>
}
 8000c18:	bd10      	pop	{r4, pc}
	...

08000c1c <DS3231_Init>:
void DS3231_Init(I2C_HandleTypeDef *hi2c) {
 8000c1c:	b510      	push	{r4, lr}
	_ds3231_ui2c = hi2c;
 8000c1e:	4b08      	ldr	r3, [pc, #32]	@ (8000c40 <DS3231_Init+0x24>)
 8000c20:	6018      	str	r0, [r3, #0]
	DS3231_EnableAlarm1(DS3231_DISABLED);
 8000c22:	2000      	movs	r0, #0
 8000c24:	f7ff ffdb 	bl	8000bde <DS3231_EnableAlarm1>
	DS3231_EnableAlarm2(DS3231_DISABLED);
 8000c28:	2000      	movs	r0, #0
 8000c2a:	f7ff ffb9 	bl	8000ba0 <DS3231_EnableAlarm2>
	DS3231_ClearAlarm1Flag();
 8000c2e:	f7ff ffe9 	bl	8000c04 <DS3231_ClearAlarm1Flag>
	DS3231_ClearAlarm2Flag();
 8000c32:	f7ff ffc9 	bl	8000bc8 <DS3231_ClearAlarm2Flag>
	DS3231_SetInterruptMode(DS3231_ALARM_INTERRUPT);
 8000c36:	2001      	movs	r0, #1
 8000c38:	f7ff ff8e 	bl	8000b58 <DS3231_SetInterruptMode>
}
 8000c3c:	bd10      	pop	{r4, pc}
 8000c3e:	46c0      	nop			@ (mov r8, r8)
 8000c40:	200001dc 	.word	0x200001dc

08000c44 <DS3231_DecodeBCD>:
/**
 * @brief Decodes the raw binary value stored in registers to decimal format.
 * @param bin Binary-coded decimal value retrieved from register, 0 to 255.
 * @return Decoded decimal value.
 */
uint8_t DS3231_DecodeBCD(uint8_t bin) {
 8000c44:	0002      	movs	r2, r0
	return (((bin & 0xf0) >> 4) * 10) + (bin & 0x0f);
 8000c46:	0903      	lsrs	r3, r0, #4
 8000c48:	200f      	movs	r0, #15
 8000c4a:	4010      	ands	r0, r2
 8000c4c:	009a      	lsls	r2, r3, #2
 8000c4e:	189b      	adds	r3, r3, r2
 8000c50:	005b      	lsls	r3, r3, #1
 8000c52:	18c0      	adds	r0, r0, r3
 8000c54:	b2c0      	uxtb	r0, r0
}
 8000c56:	4770      	bx	lr

08000c58 <DS3231_GetDayOfWeek>:
uint8_t DS3231_GetDayOfWeek(void) {
 8000c58:	b510      	push	{r4, lr}
	return DS3231_DecodeBCD(DS3231_GetRegByte(DS3231_REG_DOW));
 8000c5a:	2003      	movs	r0, #3
 8000c5c:	f7ff ff60 	bl	8000b20 <DS3231_GetRegByte>
 8000c60:	f7ff fff0 	bl	8000c44 <DS3231_DecodeBCD>
}
 8000c64:	bd10      	pop	{r4, pc}

08000c66 <DS3231_GetDate>:
uint8_t DS3231_GetDate(void) {
 8000c66:	b510      	push	{r4, lr}
	return DS3231_DecodeBCD(DS3231_GetRegByte(DS3231_REG_DATE));
 8000c68:	2004      	movs	r0, #4
 8000c6a:	f7ff ff59 	bl	8000b20 <DS3231_GetRegByte>
 8000c6e:	f7ff ffe9 	bl	8000c44 <DS3231_DecodeBCD>
}
 8000c72:	bd10      	pop	{r4, pc}

08000c74 <DS3231_GetMonth>:
uint8_t DS3231_GetMonth(void) {
 8000c74:	b510      	push	{r4, lr}
	return DS3231_DecodeBCD(DS3231_GetRegByte(DS3231_REG_MONTH) & 0x7f);
 8000c76:	2005      	movs	r0, #5
 8000c78:	f7ff ff52 	bl	8000b20 <DS3231_GetRegByte>
 8000c7c:	237f      	movs	r3, #127	@ 0x7f
 8000c7e:	4018      	ands	r0, r3
 8000c80:	f7ff ffe0 	bl	8000c44 <DS3231_DecodeBCD>
}
 8000c84:	bd10      	pop	{r4, pc}

08000c86 <DS3231_GetYear>:
uint16_t DS3231_GetYear(void) {
 8000c86:	b510      	push	{r4, lr}
	uint8_t decYear = DS3231_DecodeBCD(DS3231_GetRegByte(DS3231_REG_YEAR));
 8000c88:	2006      	movs	r0, #6
 8000c8a:	f7ff ff49 	bl	8000b20 <DS3231_GetRegByte>
 8000c8e:	f7ff ffd9 	bl	8000c44 <DS3231_DecodeBCD>
 8000c92:	0004      	movs	r4, r0
	uint16_t century = (DS3231_GetRegByte(DS3231_REG_MONTH) >> DS3231_CENTURY) * 100 + 2000;
 8000c94:	2005      	movs	r0, #5
 8000c96:	f7ff ff43 	bl	8000b20 <DS3231_GetRegByte>
 8000c9a:	09c3      	lsrs	r3, r0, #7
 8000c9c:	b2db      	uxtb	r3, r3
 8000c9e:	2264      	movs	r2, #100	@ 0x64
 8000ca0:	4353      	muls	r3, r2
 8000ca2:	b29b      	uxth	r3, r3
 8000ca4:	22fa      	movs	r2, #250	@ 0xfa
 8000ca6:	00d2      	lsls	r2, r2, #3
 8000ca8:	4694      	mov	ip, r2
 8000caa:	4463      	add	r3, ip
 8000cac:	b29b      	uxth	r3, r3
	return century + decYear;
 8000cae:	18e0      	adds	r0, r4, r3
 8000cb0:	b280      	uxth	r0, r0
}
 8000cb2:	bd10      	pop	{r4, pc}

08000cb4 <DS3231_GetHour>:
uint8_t DS3231_GetHour(void) {
 8000cb4:	b510      	push	{r4, lr}
	return DS3231_DecodeBCD(DS3231_GetRegByte(DS3231_REG_HOUR));
 8000cb6:	2002      	movs	r0, #2
 8000cb8:	f7ff ff32 	bl	8000b20 <DS3231_GetRegByte>
 8000cbc:	f7ff ffc2 	bl	8000c44 <DS3231_DecodeBCD>
}
 8000cc0:	bd10      	pop	{r4, pc}

08000cc2 <DS3231_GetMinute>:
uint8_t DS3231_GetMinute(void) {
 8000cc2:	b510      	push	{r4, lr}
	return DS3231_DecodeBCD(DS3231_GetRegByte(DS3231_REG_MINUTE));
 8000cc4:	2001      	movs	r0, #1
 8000cc6:	f7ff ff2b 	bl	8000b20 <DS3231_GetRegByte>
 8000cca:	f7ff ffbb 	bl	8000c44 <DS3231_DecodeBCD>
}
 8000cce:	bd10      	pop	{r4, pc}

08000cd0 <DS3231_GetSecond>:
uint8_t DS3231_GetSecond(void) {
 8000cd0:	b510      	push	{r4, lr}
	return DS3231_DecodeBCD(DS3231_GetRegByte(DS3231_REG_SECOND));
 8000cd2:	2000      	movs	r0, #0
 8000cd4:	f7ff ff24 	bl	8000b20 <DS3231_GetRegByte>
 8000cd8:	f7ff ffb4 	bl	8000c44 <DS3231_DecodeBCD>
}
 8000cdc:	bd10      	pop	{r4, pc}

08000cde <DS3231_EncodeBCD>:
/**
 * @brief Encodes a decimal number to binaty-coded decimal for storage in registers.
 * @param dec Decimal number to encode.
 * @return Encoded binary-coded decimal value.
 */
uint8_t DS3231_EncodeBCD(uint8_t dec) {
 8000cde:	b570      	push	{r4, r5, r6, lr}
 8000ce0:	0005      	movs	r5, r0
	return (dec % 10 + ((dec / 10) << 4));
 8000ce2:	210a      	movs	r1, #10
 8000ce4:	f7ff fa10 	bl	8000108 <__udivsi3>
 8000ce8:	0104      	lsls	r4, r0, #4
 8000cea:	b2e4      	uxtb	r4, r4
 8000cec:	210a      	movs	r1, #10
 8000cee:	0028      	movs	r0, r5
 8000cf0:	f7ff fa90 	bl	8000214 <__aeabi_uidivmod>
 8000cf4:	1860      	adds	r0, r4, r1
 8000cf6:	b2c0      	uxtb	r0, r0
}
 8000cf8:	bd70      	pop	{r4, r5, r6, pc}

08000cfa <DS3231_SetHour>:
void DS3231_SetHour(uint8_t hour_24mode) {
 8000cfa:	b510      	push	{r4, lr}
	DS3231_SetRegByte(DS3231_REG_HOUR, DS3231_EncodeBCD(hour_24mode & 0x3f));
 8000cfc:	233f      	movs	r3, #63	@ 0x3f
 8000cfe:	4018      	ands	r0, r3
 8000d00:	f7ff ffed 	bl	8000cde <DS3231_EncodeBCD>
 8000d04:	0001      	movs	r1, r0
 8000d06:	2002      	movs	r0, #2
 8000d08:	f7ff fef6 	bl	8000af8 <DS3231_SetRegByte>
}
 8000d0c:	bd10      	pop	{r4, pc}

08000d0e <DS3231_SetMinute>:
void DS3231_SetMinute(uint8_t minute) {
 8000d0e:	b510      	push	{r4, lr}
	DS3231_SetRegByte(DS3231_REG_MINUTE, DS3231_EncodeBCD(minute));
 8000d10:	f7ff ffe5 	bl	8000cde <DS3231_EncodeBCD>
 8000d14:	0001      	movs	r1, r0
 8000d16:	2001      	movs	r0, #1
 8000d18:	f7ff feee 	bl	8000af8 <DS3231_SetRegByte>
}
 8000d1c:	bd10      	pop	{r4, pc}

08000d1e <DS3231_SetSecond>:
void DS3231_SetSecond(uint8_t second) {
 8000d1e:	b510      	push	{r4, lr}
	DS3231_SetRegByte(DS3231_REG_SECOND, DS3231_EncodeBCD(second));
 8000d20:	f7ff ffdd 	bl	8000cde <DS3231_EncodeBCD>
 8000d24:	0001      	movs	r1, r0
 8000d26:	2000      	movs	r0, #0
 8000d28:	f7ff fee6 	bl	8000af8 <DS3231_SetRegByte>
}
 8000d2c:	bd10      	pop	{r4, pc}

08000d2e <DS3231_SetFullTime>:
void DS3231_SetFullTime(uint8_t  hour_24mode, uint8_t minute, uint8_t second){
 8000d2e:	b570      	push	{r4, r5, r6, lr}
 8000d30:	000d      	movs	r5, r1
 8000d32:	0014      	movs	r4, r2
	DS3231_SetHour(hour_24mode);
 8000d34:	f7ff ffe1 	bl	8000cfa <DS3231_SetHour>
	DS3231_SetMinute(minute);
 8000d38:	0028      	movs	r0, r5
 8000d3a:	f7ff ffe8 	bl	8000d0e <DS3231_SetMinute>
	DS3231_SetSecond(second);
 8000d3e:	0020      	movs	r0, r4
 8000d40:	f7ff ffed 	bl	8000d1e <DS3231_SetSecond>
}
 8000d44:	bd70      	pop	{r4, r5, r6, pc}
	...

08000d48 <HAL_InitTick>:
  *       implementation  in user file.
  * @param TickPriority Tick interrupt priority.
  * @retval HAL status
  */
__weak HAL_StatusTypeDef HAL_InitTick(uint32_t TickPriority)
{
 8000d48:	b510      	push	{r4, lr}
 8000d4a:	0004      	movs	r4, r0
  /* Configure the SysTick to have interrupt in 1ms time basis*/
  if (HAL_SYSTICK_Config(SystemCoreClock / (1000U / uwTickFreq)) > 0U)
 8000d4c:	4b0f      	ldr	r3, [pc, #60]	@ (8000d8c <HAL_InitTick+0x44>)
 8000d4e:	7819      	ldrb	r1, [r3, #0]
 8000d50:	20fa      	movs	r0, #250	@ 0xfa
 8000d52:	0080      	lsls	r0, r0, #2
 8000d54:	f7ff f9d8 	bl	8000108 <__udivsi3>
 8000d58:	0001      	movs	r1, r0
 8000d5a:	4b0d      	ldr	r3, [pc, #52]	@ (8000d90 <HAL_InitTick+0x48>)
 8000d5c:	6818      	ldr	r0, [r3, #0]
 8000d5e:	f7ff f9d3 	bl	8000108 <__udivsi3>
 8000d62:	f000 f8a1 	bl	8000ea8 <HAL_SYSTICK_Config>
 8000d66:	2800      	cmp	r0, #0
 8000d68:	d10d      	bne.n	8000d86 <HAL_InitTick+0x3e>
  {
    return HAL_ERROR;
  }

  /* Configure the SysTick IRQ priority */
  if (TickPriority < (1UL << __NVIC_PRIO_BITS))
 8000d6a:	2c03      	cmp	r4, #3
 8000d6c:	d901      	bls.n	8000d72 <HAL_InitTick+0x2a>
    HAL_NVIC_SetPriority(SysTick_IRQn, TickPriority, 0U);
    uwTickPrio = TickPriority;
  }
  else
  {
    return HAL_ERROR;
 8000d6e:	2001      	movs	r0, #1
 8000d70:	e00a      	b.n	8000d88 <HAL_InitTick+0x40>
    HAL_NVIC_SetPriority(SysTick_IRQn, TickPriority, 0U);
 8000d72:	3001      	adds	r0, #1
 8000d74:	2200      	movs	r2, #0
 8000d76:	0021      	movs	r1, r4
 8000d78:	4240      	negs	r0, r0
 8000d7a:	f000 f891 	bl	8000ea0 <HAL_NVIC_SetPriority>
    uwTickPrio = TickPriority;
 8000d7e:	4b05      	ldr	r3, [pc, #20]	@ (8000d94 <HAL_InitTick+0x4c>)
 8000d80:	601c      	str	r4, [r3, #0]
  }

  /* Return function status */
  return HAL_OK;
 8000d82:	2000      	movs	r0, #0
 8000d84:	e000      	b.n	8000d88 <HAL_InitTick+0x40>
    return HAL_ERROR;
 8000d86:	2001      	movs	r0, #1
}
 8000d88:	bd10      	pop	{r4, pc}
 8000d8a:	46c0      	nop			@ (mov r8, r8)
 8000d8c:	20000018 	.word	0x20000018
 8000d90:	20000014 	.word	0x20000014
 8000d94:	2000001c 	.word	0x2000001c

08000d98 <HAL_Init>:
{
 8000d98:	b510      	push	{r4, lr}
  __HAL_FLASH_PREREAD_BUFFER_ENABLE();
 8000d9a:	4a08      	ldr	r2, [pc, #32]	@ (8000dbc <HAL_Init+0x24>)
 8000d9c:	6813      	ldr	r3, [r2, #0]
 8000d9e:	2140      	movs	r1, #64	@ 0x40
 8000da0:	430b      	orrs	r3, r1
 8000da2:	6013      	str	r3, [r2, #0]
  if (HAL_InitTick(TICK_INT_PRIORITY) != HAL_OK)
 8000da4:	2003      	movs	r0, #3
 8000da6:	f7ff ffcf 	bl	8000d48 <HAL_InitTick>
 8000daa:	1e04      	subs	r4, r0, #0
 8000dac:	d002      	beq.n	8000db4 <HAL_Init+0x1c>
    status = HAL_ERROR;
 8000dae:	2401      	movs	r4, #1
}
 8000db0:	0020      	movs	r0, r4
 8000db2:	bd10      	pop	{r4, pc}
    HAL_MspInit();
 8000db4:	f7ff fdd2 	bl	800095c <HAL_MspInit>
 8000db8:	e7fa      	b.n	8000db0 <HAL_Init+0x18>
 8000dba:	46c0      	nop			@ (mov r8, r8)
 8000dbc:	40022000 	.word	0x40022000

08000dc0 <HAL_IncTick>:
  *      implementations in user file.
  * @retval None
  */
__weak void HAL_IncTick(void)
{
  uwTick += uwTickFreq;
 8000dc0:	4a03      	ldr	r2, [pc, #12]	@ (8000dd0 <HAL_IncTick+0x10>)
 8000dc2:	6811      	ldr	r1, [r2, #0]
 8000dc4:	4b03      	ldr	r3, [pc, #12]	@ (8000dd4 <HAL_IncTick+0x14>)
 8000dc6:	781b      	ldrb	r3, [r3, #0]
 8000dc8:	185b      	adds	r3, r3, r1
 8000dca:	6013      	str	r3, [r2, #0]
}
 8000dcc:	4770      	bx	lr
 8000dce:	46c0      	nop			@ (mov r8, r8)
 8000dd0:	200001e0 	.word	0x200001e0
 8000dd4:	20000018 	.word	0x20000018

08000dd8 <HAL_GetTick>:
  *       implementations in user file.
  * @retval tick value
  */
__weak uint32_t HAL_GetTick(void)
{
  return uwTick;
 8000dd8:	4b01      	ldr	r3, [pc, #4]	@ (8000de0 <HAL_GetTick+0x8>)
 8000dda:	6818      	ldr	r0, [r3, #0]
}
 8000ddc:	4770      	bx	lr
 8000dde:	46c0      	nop			@ (mov r8, r8)
 8000de0:	200001e0 	.word	0x200001e0

08000de4 <HAL_Delay>:
  *       implementations in user file.
  * @param Delay specifies the delay time length, in milliseconds.
  * @retval None
  */
__weak void HAL_Delay(uint32_t Delay)
{
 8000de4:	b570      	push	{r4, r5, r6, lr}
 8000de6:	0004      	movs	r4, r0
  uint32_t tickstart = HAL_GetTick();
 8000de8:	f7ff fff6 	bl	8000dd8 <HAL_GetTick>
 8000dec:	0005      	movs	r5, r0
  uint32_t wait = Delay;

  /* Add a freq to guarantee minimum wait */
  if (wait < HAL_MAX_DELAY)
 8000dee:	1c63      	adds	r3, r4, #1
 8000df0:	d002      	beq.n	8000df8 <HAL_Delay+0x14>
  {
    wait += (uint32_t)(uwTickFreq);
 8000df2:	4b04      	ldr	r3, [pc, #16]	@ (8000e04 <HAL_Delay+0x20>)
 8000df4:	781b      	ldrb	r3, [r3, #0]
 8000df6:	18e4      	adds	r4, r4, r3
  }

  while((HAL_GetTick() - tickstart) < wait)
 8000df8:	f7ff ffee 	bl	8000dd8 <HAL_GetTick>
 8000dfc:	1b40      	subs	r0, r0, r5
 8000dfe:	42a0      	cmp	r0, r4
 8000e00:	d3fa      	bcc.n	8000df8 <HAL_Delay+0x14>
  {
  }
}
 8000e02:	bd70      	pop	{r4, r5, r6, pc}
 8000e04:	20000018 	.word	0x20000018

08000e08 <__NVIC_SetPriority>:
  \param [in]      IRQn  Interrupt number.
  \param [in]  priority  Priority to set.
  \note    The priority cannot be set for every processor exception.
 */
__STATIC_INLINE void __NVIC_SetPriority(IRQn_Type IRQn, uint32_t priority)
{
 8000e08:	b570      	push	{r4, r5, r6, lr}
  if ((int32_t)(IRQn) >= 0)
 8000e0a:	2800      	cmp	r0, #0
 8000e0c:	db11      	blt.n	8000e32 <__NVIC_SetPriority+0x2a>
  {
    NVIC->IP[_IP_IDX(IRQn)]  = ((uint32_t)(NVIC->IP[_IP_IDX(IRQn)]  & ~(0xFFUL << _BIT_SHIFT(IRQn))) |
 8000e0e:	0883      	lsrs	r3, r0, #2
 8000e10:	4d13      	ldr	r5, [pc, #76]	@ (8000e60 <__NVIC_SetPriority+0x58>)
 8000e12:	33c0      	adds	r3, #192	@ 0xc0
 8000e14:	009b      	lsls	r3, r3, #2
 8000e16:	595c      	ldr	r4, [r3, r5]
 8000e18:	2203      	movs	r2, #3
 8000e1a:	4010      	ands	r0, r2
 8000e1c:	00c0      	lsls	r0, r0, #3
 8000e1e:	32fc      	adds	r2, #252	@ 0xfc
 8000e20:	0016      	movs	r6, r2
 8000e22:	4086      	lsls	r6, r0
 8000e24:	43b4      	bics	r4, r6
       (((priority << (8U - __NVIC_PRIO_BITS)) & (uint32_t)0xFFUL) << _BIT_SHIFT(IRQn)));
 8000e26:	0189      	lsls	r1, r1, #6
 8000e28:	400a      	ands	r2, r1
 8000e2a:	4082      	lsls	r2, r0
    NVIC->IP[_IP_IDX(IRQn)]  = ((uint32_t)(NVIC->IP[_IP_IDX(IRQn)]  & ~(0xFFUL << _BIT_SHIFT(IRQn))) |
 8000e2c:	4322      	orrs	r2, r4
 8000e2e:	515a      	str	r2, [r3, r5]
  else
  {
    SCB->SHP[_SHP_IDX(IRQn)] = ((uint32_t)(SCB->SHP[_SHP_IDX(IRQn)] & ~(0xFFUL << _BIT_SHIFT(IRQn))) |
       (((priority << (8U - __NVIC_PRIO_BITS)) & (uint32_t)0xFFUL) << _BIT_SHIFT(IRQn)));
  }
}
 8000e30:	bd70      	pop	{r4, r5, r6, pc}
    SCB->SHP[_SHP_IDX(IRQn)] = ((uint32_t)(SCB->SHP[_SHP_IDX(IRQn)] & ~(0xFFUL << _BIT_SHIFT(IRQn))) |
 8000e32:	230f      	movs	r3, #15
 8000e34:	4003      	ands	r3, r0
 8000e36:	3b08      	subs	r3, #8
 8000e38:	089b      	lsrs	r3, r3, #2
 8000e3a:	3306      	adds	r3, #6
 8000e3c:	009b      	lsls	r3, r3, #2
 8000e3e:	4a09      	ldr	r2, [pc, #36]	@ (8000e64 <__NVIC_SetPriority+0x5c>)
 8000e40:	4694      	mov	ip, r2
 8000e42:	4463      	add	r3, ip
 8000e44:	685c      	ldr	r4, [r3, #4]
 8000e46:	2203      	movs	r2, #3
 8000e48:	4010      	ands	r0, r2
 8000e4a:	00c0      	lsls	r0, r0, #3
 8000e4c:	32fc      	adds	r2, #252	@ 0xfc
 8000e4e:	0015      	movs	r5, r2
 8000e50:	4085      	lsls	r5, r0
 8000e52:	43ac      	bics	r4, r5
       (((priority << (8U - __NVIC_PRIO_BITS)) & (uint32_t)0xFFUL) << _BIT_SHIFT(IRQn)));
 8000e54:	0189      	lsls	r1, r1, #6
 8000e56:	400a      	ands	r2, r1
 8000e58:	4082      	lsls	r2, r0
    SCB->SHP[_SHP_IDX(IRQn)] = ((uint32_t)(SCB->SHP[_SHP_IDX(IRQn)] & ~(0xFFUL << _BIT_SHIFT(IRQn))) |
 8000e5a:	4322      	orrs	r2, r4
 8000e5c:	605a      	str	r2, [r3, #4]
}
 8000e5e:	e7e7      	b.n	8000e30 <__NVIC_SetPriority+0x28>
 8000e60:	e000e100 	.word	0xe000e100
 8000e64:	e000ed00 	.word	0xe000ed00

08000e68 <SysTick_Config>:
           function <b>SysTick_Config</b> is not included. In this case, the file <b><i>device</i>.h</b>
           must contain a vendor-specific implementation of this function.
 */
__STATIC_INLINE uint32_t SysTick_Config(uint32_t ticks)
{
  if ((ticks - 1UL) > SysTick_LOAD_RELOAD_Msk)
 8000e68:	3801      	subs	r0, #1
 8000e6a:	2380      	movs	r3, #128	@ 0x80
 8000e6c:	045b      	lsls	r3, r3, #17
 8000e6e:	4298      	cmp	r0, r3
 8000e70:	d20f      	bcs.n	8000e92 <SysTick_Config+0x2a>
  {
    return (1UL);                                                   /* Reload value impossible */
  }

  SysTick->LOAD  = (uint32_t)(ticks - 1UL);                         /* set reload register */
 8000e72:	4a09      	ldr	r2, [pc, #36]	@ (8000e98 <SysTick_Config+0x30>)
 8000e74:	6050      	str	r0, [r2, #4]
    SCB->SHP[_SHP_IDX(IRQn)] = ((uint32_t)(SCB->SHP[_SHP_IDX(IRQn)] & ~(0xFFUL << _BIT_SHIFT(IRQn))) |
 8000e76:	4809      	ldr	r0, [pc, #36]	@ (8000e9c <SysTick_Config+0x34>)
 8000e78:	6a03      	ldr	r3, [r0, #32]
 8000e7a:	021b      	lsls	r3, r3, #8
 8000e7c:	0a1b      	lsrs	r3, r3, #8
 8000e7e:	21c0      	movs	r1, #192	@ 0xc0
 8000e80:	0609      	lsls	r1, r1, #24
 8000e82:	430b      	orrs	r3, r1
 8000e84:	6203      	str	r3, [r0, #32]
  NVIC_SetPriority (SysTick_IRQn, (1UL << __NVIC_PRIO_BITS) - 1UL); /* set Priority for Systick Interrupt */
  SysTick->VAL   = 0UL;                                             /* Load the SysTick Counter Value */
 8000e86:	2300      	movs	r3, #0
 8000e88:	6093      	str	r3, [r2, #8]
  SysTick->CTRL  = SysTick_CTRL_CLKSOURCE_Msk |
 8000e8a:	3307      	adds	r3, #7
 8000e8c:	6013      	str	r3, [r2, #0]
                   SysTick_CTRL_TICKINT_Msk   |
                   SysTick_CTRL_ENABLE_Msk;                         /* Enable SysTick IRQ and SysTick Timer */
  return (0UL);                                                     /* Function successful */
 8000e8e:	2000      	movs	r0, #0
}
 8000e90:	4770      	bx	lr
    return (1UL);                                                   /* Reload value impossible */
 8000e92:	2001      	movs	r0, #1
 8000e94:	e7fc      	b.n	8000e90 <SysTick_Config+0x28>
 8000e96:	46c0      	nop			@ (mov r8, r8)
 8000e98:	e000e010 	.word	0xe000e010
 8000e9c:	e000ed00 	.word	0xe000ed00

08000ea0 <HAL_NVIC_SetPriority>:
  *         with stm32l0xx devices, this parameter is a dummy value and it is ignored, because 
  *         no subpriority supported in Cortex M0+ based products.   
  * @retval None
  */
void HAL_NVIC_SetPriority(IRQn_Type IRQn, uint32_t PreemptPriority, uint32_t SubPriority)
{ 
 8000ea0:	b510      	push	{r4, lr}
    /* Check the parameters */
  assert_param(IS_NVIC_PREEMPTION_PRIORITY(PreemptPriority));
  NVIC_SetPriority(IRQn,PreemptPriority);
 8000ea2:	f7ff ffb1 	bl	8000e08 <__NVIC_SetPriority>
}
 8000ea6:	bd10      	pop	{r4, pc}

08000ea8 <HAL_SYSTICK_Config>:
  * @param  TicksNumb Specifies the ticks Number of ticks between two interrupts.
  * @retval status:  - 0  Function succeeded.
  *                  - 1  Function failed.
  */
uint32_t HAL_SYSTICK_Config(uint32_t TicksNumb)
{
 8000ea8:	b510      	push	{r4, lr}
   return SysTick_Config(TicksNumb);
 8000eaa:	f7ff ffdd 	bl	8000e68 <SysTick_Config>
}
 8000eae:	bd10      	pop	{r4, pc}

08000eb0 <HAL_GPIO_Init>:
  * @param  GPIO_Init pointer to a GPIO_InitTypeDef structure that contains
  *                    the configuration information for the specified GPIO peripheral.
  * @retval None
  */
void HAL_GPIO_Init(GPIO_TypeDef  *GPIOx, GPIO_InitTypeDef *GPIO_Init)
{
 8000eb0:	b5f0      	push	{r4, r5, r6, r7, lr}
  uint32_t position = 0x00U;
 8000eb2:	2300      	movs	r3, #0
  /* Check the parameters */
  assert_param(IS_GPIO_MODE(GPIO_Init->Mode));
  assert_param(IS_GPIO_PIN_AVAILABLE(GPIOx, (GPIO_Init->Pin)));

  /* Configure the port pins */
  while (((GPIO_Init->Pin) >> position) != 0)
 8000eb4:	e056      	b.n	8000f64 <HAL_GPIO_Init+0xb4>
          ((GPIO_Init->Mode & GPIO_MODE) == MODE_AF))
      {
        /* Check the Speed parameter */
        assert_param(IS_GPIO_SPEED(GPIO_Init->Speed));
        /* Configure the IO Speed */
        temp = GPIOx->OSPEEDR;
 8000eb6:	6886      	ldr	r6, [r0, #8]
        temp &= ~(GPIO_OSPEEDER_OSPEED0 << (position * 2U));
 8000eb8:	005f      	lsls	r7, r3, #1
 8000eba:	2403      	movs	r4, #3
 8000ebc:	40bc      	lsls	r4, r7
 8000ebe:	43a6      	bics	r6, r4
        temp |= (GPIO_Init->Speed << (position * 2U));
 8000ec0:	68cc      	ldr	r4, [r1, #12]
 8000ec2:	40bc      	lsls	r4, r7
 8000ec4:	4334      	orrs	r4, r6
        GPIOx->OSPEEDR = temp;
 8000ec6:	6084      	str	r4, [r0, #8]

        /* Configure the IO Output Type */
        temp = GPIOx->OTYPER;
 8000ec8:	6844      	ldr	r4, [r0, #4]
        temp &= ~(GPIO_OTYPER_OT_0 << position) ;
 8000eca:	4394      	bics	r4, r2
        temp |= (((GPIO_Init->Mode & OUTPUT_TYPE) >> OUTPUT_TYPE_Pos) << position);
 8000ecc:	684e      	ldr	r6, [r1, #4]
 8000ece:	0936      	lsrs	r6, r6, #4
 8000ed0:	2201      	movs	r2, #1
 8000ed2:	4032      	ands	r2, r6
 8000ed4:	409a      	lsls	r2, r3
 8000ed6:	4322      	orrs	r2, r4
        GPIOx->OTYPER = temp;
 8000ed8:	6042      	str	r2, [r0, #4]
 8000eda:	e053      	b.n	8000f84 <HAL_GPIO_Init+0xd4>
        /* Check the Alternate function parameters */
        assert_param(IS_GPIO_AF_INSTANCE(GPIOx));
        assert_param(IS_GPIO_AF(GPIO_Init->Alternate));

        /* Configure Alternate function mapped with the current IO */
        temp = GPIOx->AFR[position >> 3U];
 8000edc:	08de      	lsrs	r6, r3, #3
 8000ede:	3608      	adds	r6, #8
 8000ee0:	00b6      	lsls	r6, r6, #2
 8000ee2:	5837      	ldr	r7, [r6, r0]
        temp &= ~(0xFUL << ((uint32_t)(position & 0x07UL) * 4U));
 8000ee4:	3205      	adds	r2, #5
 8000ee6:	401a      	ands	r2, r3
 8000ee8:	0092      	lsls	r2, r2, #2
 8000eea:	240f      	movs	r4, #15
 8000eec:	4094      	lsls	r4, r2
 8000eee:	43a7      	bics	r7, r4
        temp |= ((uint32_t)(GPIO_Init->Alternate) << (((uint32_t)position & (uint32_t)0x07U) * 4U));
 8000ef0:	690c      	ldr	r4, [r1, #16]
 8000ef2:	4094      	lsls	r4, r2
 8000ef4:	0022      	movs	r2, r4
 8000ef6:	433a      	orrs	r2, r7
        GPIOx->AFR[position >> 3U] = temp;
 8000ef8:	5032      	str	r2, [r6, r0]
 8000efa:	e056      	b.n	8000faa <HAL_GPIO_Init+0xfa>
        /* Enable SYSCFG Clock */
        __HAL_RCC_SYSCFG_CLK_ENABLE();

        temp = SYSCFG->EXTICR[position >> 2U];
        CLEAR_BIT(temp, (0x0FUL) << (4U * (position & 0x03U)));
        SET_BIT(temp, (GPIO_GET_INDEX(GPIOx)) << (4 * (position & 0x03U)));
 8000efc:	2605      	movs	r6, #5
 8000efe:	e000      	b.n	8000f02 <HAL_GPIO_Init+0x52>
 8000f00:	2600      	movs	r6, #0
 8000f02:	40a6      	lsls	r6, r4
 8000f04:	0034      	movs	r4, r6
 8000f06:	433c      	orrs	r4, r7
        SYSCFG->EXTICR[position >> 2U] = temp;
 8000f08:	3202      	adds	r2, #2
 8000f0a:	0092      	lsls	r2, r2, #2
 8000f0c:	4e41      	ldr	r6, [pc, #260]	@ (8001014 <HAL_GPIO_Init+0x164>)
 8000f0e:	5194      	str	r4, [r2, r6]

        /* Clear Rising Falling edge configuration */
        temp = EXTI->RTSR;
 8000f10:	4a41      	ldr	r2, [pc, #260]	@ (8001018 <HAL_GPIO_Init+0x168>)
 8000f12:	6897      	ldr	r7, [r2, #8]
        temp &= ~((uint32_t)iocurrent);
 8000f14:	43ea      	mvns	r2, r5
 8000f16:	003e      	movs	r6, r7
 8000f18:	43ae      	bics	r6, r5
        if ((GPIO_Init->Mode & TRIGGER_RISING) != 0x00U)
 8000f1a:	684c      	ldr	r4, [r1, #4]
 8000f1c:	02e4      	lsls	r4, r4, #11
 8000f1e:	d501      	bpl.n	8000f24 <HAL_GPIO_Init+0x74>
        {
          temp |= iocurrent;
 8000f20:	003e      	movs	r6, r7
 8000f22:	432e      	orrs	r6, r5
        }
        EXTI->RTSR = temp;
 8000f24:	4c3c      	ldr	r4, [pc, #240]	@ (8001018 <HAL_GPIO_Init+0x168>)
 8000f26:	60a6      	str	r6, [r4, #8]

        temp = EXTI->FTSR;
 8000f28:	68e7      	ldr	r7, [r4, #12]
        temp &= ~((uint32_t)iocurrent);
 8000f2a:	003e      	movs	r6, r7
 8000f2c:	4016      	ands	r6, r2
        if ((GPIO_Init->Mode & TRIGGER_FALLING) != 0x00U)
 8000f2e:	684c      	ldr	r4, [r1, #4]
 8000f30:	02a4      	lsls	r4, r4, #10
 8000f32:	d501      	bpl.n	8000f38 <HAL_GPIO_Init+0x88>
        {
          temp |= iocurrent;
 8000f34:	003e      	movs	r6, r7
 8000f36:	432e      	orrs	r6, r5
        }
        EXTI->FTSR = temp;
 8000f38:	4c37      	ldr	r4, [pc, #220]	@ (8001018 <HAL_GPIO_Init+0x168>)
 8000f3a:	60e6      	str	r6, [r4, #12]

        temp = EXTI->EMR;
 8000f3c:	6867      	ldr	r7, [r4, #4]
        temp &= ~((uint32_t)iocurrent);
 8000f3e:	003e      	movs	r6, r7
 8000f40:	4016      	ands	r6, r2
        if ((GPIO_Init->Mode & EXTI_EVT) != 0x00U)
 8000f42:	684c      	ldr	r4, [r1, #4]
 8000f44:	03a4      	lsls	r4, r4, #14
 8000f46:	d501      	bpl.n	8000f4c <HAL_GPIO_Init+0x9c>
        {
          temp |= iocurrent;
 8000f48:	003e      	movs	r6, r7
 8000f4a:	432e      	orrs	r6, r5
        }
        EXTI->EMR = temp;
 8000f4c:	4c32      	ldr	r4, [pc, #200]	@ (8001018 <HAL_GPIO_Init+0x168>)
 8000f4e:	6066      	str	r6, [r4, #4]

        /* Clear EXTI line configuration */
        temp = EXTI->IMR;
 8000f50:	6826      	ldr	r6, [r4, #0]
        temp &= ~((uint32_t)iocurrent);
 8000f52:	4032      	ands	r2, r6
        if ((GPIO_Init->Mode & EXTI_IT) != 0x00U)
 8000f54:	684c      	ldr	r4, [r1, #4]
 8000f56:	03e4      	lsls	r4, r4, #15
 8000f58:	d501      	bpl.n	8000f5e <HAL_GPIO_Init+0xae>
        {
          temp |= iocurrent;
 8000f5a:	002a      	movs	r2, r5
 8000f5c:	4332      	orrs	r2, r6
        }
        EXTI->IMR = temp;
 8000f5e:	4c2e      	ldr	r4, [pc, #184]	@ (8001018 <HAL_GPIO_Init+0x168>)
 8000f60:	6022      	str	r2, [r4, #0]
      }
    }
    position++;
 8000f62:	3301      	adds	r3, #1
  while (((GPIO_Init->Pin) >> position) != 0)
 8000f64:	680c      	ldr	r4, [r1, #0]
 8000f66:	0022      	movs	r2, r4
 8000f68:	40da      	lsrs	r2, r3
 8000f6a:	d052      	beq.n	8001012 <HAL_GPIO_Init+0x162>
    iocurrent = (GPIO_Init->Pin) & (1U << position);
 8000f6c:	2201      	movs	r2, #1
 8000f6e:	409a      	lsls	r2, r3
 8000f70:	0025      	movs	r5, r4
 8000f72:	4015      	ands	r5, r2
    if (iocurrent)
 8000f74:	4214      	tst	r4, r2
 8000f76:	d0f4      	beq.n	8000f62 <HAL_GPIO_Init+0xb2>
      if (((GPIO_Init->Mode & GPIO_MODE) == MODE_OUTPUT) ||
 8000f78:	684e      	ldr	r6, [r1, #4]
 8000f7a:	2403      	movs	r4, #3
 8000f7c:	4034      	ands	r4, r6
 8000f7e:	3c01      	subs	r4, #1
 8000f80:	2c01      	cmp	r4, #1
 8000f82:	d998      	bls.n	8000eb6 <HAL_GPIO_Init+0x6>
      if ((GPIO_Init->Mode & GPIO_MODE) != MODE_ANALOG)
 8000f84:	684c      	ldr	r4, [r1, #4]
 8000f86:	2203      	movs	r2, #3
 8000f88:	4022      	ands	r2, r4
 8000f8a:	2a03      	cmp	r2, #3
 8000f8c:	d008      	beq.n	8000fa0 <HAL_GPIO_Init+0xf0>
        temp = GPIOx->PUPDR;
 8000f8e:	68c4      	ldr	r4, [r0, #12]
        temp &= ~(GPIO_PUPDR_PUPD0 << (position * 2U));
 8000f90:	005e      	lsls	r6, r3, #1
 8000f92:	2203      	movs	r2, #3
 8000f94:	40b2      	lsls	r2, r6
 8000f96:	4394      	bics	r4, r2
        temp |= ((GPIO_Init->Pull) << (position * 2U));
 8000f98:	688a      	ldr	r2, [r1, #8]
 8000f9a:	40b2      	lsls	r2, r6
 8000f9c:	4322      	orrs	r2, r4
        GPIOx->PUPDR = temp;
 8000f9e:	60c2      	str	r2, [r0, #12]
      if ((GPIO_Init->Mode & GPIO_MODE) == MODE_AF)
 8000fa0:	684c      	ldr	r4, [r1, #4]
 8000fa2:	2203      	movs	r2, #3
 8000fa4:	4022      	ands	r2, r4
 8000fa6:	2a02      	cmp	r2, #2
 8000fa8:	d098      	beq.n	8000edc <HAL_GPIO_Init+0x2c>
      temp = GPIOx->MODER;
 8000faa:	6804      	ldr	r4, [r0, #0]
      temp &= ~(GPIO_MODER_MODE0 << (position * 2U));
 8000fac:	005e      	lsls	r6, r3, #1
 8000fae:	2203      	movs	r2, #3
 8000fb0:	0017      	movs	r7, r2
 8000fb2:	40b7      	lsls	r7, r6
 8000fb4:	43bc      	bics	r4, r7
      temp |= ((GPIO_Init->Mode & GPIO_MODE) << (position * 2U));
 8000fb6:	684f      	ldr	r7, [r1, #4]
 8000fb8:	403a      	ands	r2, r7
 8000fba:	40b2      	lsls	r2, r6
 8000fbc:	4322      	orrs	r2, r4
      GPIOx->MODER = temp;
 8000fbe:	6002      	str	r2, [r0, #0]
      if ((GPIO_Init->Mode & EXTI_MODE) != 0x00U)
 8000fc0:	684c      	ldr	r4, [r1, #4]
 8000fc2:	22c0      	movs	r2, #192	@ 0xc0
 8000fc4:	0292      	lsls	r2, r2, #10
 8000fc6:	4214      	tst	r4, r2
 8000fc8:	d0cb      	beq.n	8000f62 <HAL_GPIO_Init+0xb2>
        __HAL_RCC_SYSCFG_CLK_ENABLE();
 8000fca:	4c14      	ldr	r4, [pc, #80]	@ (800101c <HAL_GPIO_Init+0x16c>)
 8000fcc:	6b62      	ldr	r2, [r4, #52]	@ 0x34
 8000fce:	2601      	movs	r6, #1
 8000fd0:	4332      	orrs	r2, r6
 8000fd2:	6362      	str	r2, [r4, #52]	@ 0x34
        temp = SYSCFG->EXTICR[position >> 2U];
 8000fd4:	089a      	lsrs	r2, r3, #2
 8000fd6:	1c94      	adds	r4, r2, #2
 8000fd8:	00a4      	lsls	r4, r4, #2
 8000fda:	4e0e      	ldr	r6, [pc, #56]	@ (8001014 <HAL_GPIO_Init+0x164>)
 8000fdc:	59a7      	ldr	r7, [r4, r6]
        CLEAR_BIT(temp, (0x0FUL) << (4U * (position & 0x03U)));
 8000fde:	2403      	movs	r4, #3
 8000fe0:	401c      	ands	r4, r3
 8000fe2:	00a4      	lsls	r4, r4, #2
 8000fe4:	260f      	movs	r6, #15
 8000fe6:	40a6      	lsls	r6, r4
 8000fe8:	43b7      	bics	r7, r6
        SET_BIT(temp, (GPIO_GET_INDEX(GPIOx)) << (4 * (position & 0x03U)));
 8000fea:	26a0      	movs	r6, #160	@ 0xa0
 8000fec:	05f6      	lsls	r6, r6, #23
 8000fee:	42b0      	cmp	r0, r6
 8000ff0:	d086      	beq.n	8000f00 <HAL_GPIO_Init+0x50>
 8000ff2:	4e0b      	ldr	r6, [pc, #44]	@ (8001020 <HAL_GPIO_Init+0x170>)
 8000ff4:	42b0      	cmp	r0, r6
 8000ff6:	d008      	beq.n	800100a <HAL_GPIO_Init+0x15a>
 8000ff8:	4e0a      	ldr	r6, [pc, #40]	@ (8001024 <HAL_GPIO_Init+0x174>)
 8000ffa:	42b0      	cmp	r0, r6
 8000ffc:	d007      	beq.n	800100e <HAL_GPIO_Init+0x15e>
 8000ffe:	4e0a      	ldr	r6, [pc, #40]	@ (8001028 <HAL_GPIO_Init+0x178>)
 8001000:	42b0      	cmp	r0, r6
 8001002:	d100      	bne.n	8001006 <HAL_GPIO_Init+0x156>
 8001004:	e77a      	b.n	8000efc <HAL_GPIO_Init+0x4c>
 8001006:	2606      	movs	r6, #6
 8001008:	e77b      	b.n	8000f02 <HAL_GPIO_Init+0x52>
 800100a:	2601      	movs	r6, #1
 800100c:	e779      	b.n	8000f02 <HAL_GPIO_Init+0x52>
 800100e:	2602      	movs	r6, #2
 8001010:	e777      	b.n	8000f02 <HAL_GPIO_Init+0x52>
  }
}
 8001012:	bdf0      	pop	{r4, r5, r6, r7, pc}
 8001014:	40010000 	.word	0x40010000
 8001018:	40010400 	.word	0x40010400
 800101c:	40021000 	.word	0x40021000
 8001020:	50000400 	.word	0x50000400
 8001024:	50000800 	.word	0x50000800
 8001028:	50001c00 	.word	0x50001c00

0800102c <HAL_GPIO_WritePin>:
{
  /* Check the parameters */
  assert_param(IS_GPIO_PIN_AVAILABLE(GPIOx, GPIO_Pin));
  assert_param(IS_GPIO_PIN_ACTION(PinState));

  if (PinState != GPIO_PIN_RESET)
 800102c:	2a00      	cmp	r2, #0
 800102e:	d001      	beq.n	8001034 <HAL_GPIO_WritePin+0x8>
  {
    GPIOx->BSRR = GPIO_Pin;
 8001030:	6181      	str	r1, [r0, #24]
  }
  else
  {
    GPIOx->BRR = GPIO_Pin ;
  }
}
 8001032:	4770      	bx	lr
    GPIOx->BRR = GPIO_Pin ;
 8001034:	6281      	str	r1, [r0, #40]	@ 0x28
}
 8001036:	e7fc      	b.n	8001032 <HAL_GPIO_WritePin+0x6>

08001038 <HAL_GPIO_TogglePin>:

  /* Check the parameters */
  assert_param(IS_GPIO_PIN_AVAILABLE(GPIOx, GPIO_Pin));

  /* get current Output Data Register value */
  odr = GPIOx->ODR;
 8001038:	6942      	ldr	r2, [r0, #20]

  /* Set selected pins that were at low level, and reset ones that were high */
  GPIOx->BSRR = ((odr & GPIO_Pin) << GPIO_NUMBER) | (~odr & GPIO_Pin);
 800103a:	0013      	movs	r3, r2
 800103c:	400b      	ands	r3, r1
 800103e:	041b      	lsls	r3, r3, #16
 8001040:	4391      	bics	r1, r2
 8001042:	430b      	orrs	r3, r1
 8001044:	6183      	str	r3, [r0, #24]
}
 8001046:	4770      	bx	lr

08001048 <I2C_Flush_TXDR>:
  */
static void I2C_Flush_TXDR(I2C_HandleTypeDef *hi2c)
{
  /* If a pending TXIS flag is set */
  /* Write a dummy data in TXDR to clear it */
  if (__HAL_I2C_GET_FLAG(hi2c, I2C_FLAG_TXIS) != RESET)
 8001048:	6802      	ldr	r2, [r0, #0]
 800104a:	6993      	ldr	r3, [r2, #24]
 800104c:	079b      	lsls	r3, r3, #30
 800104e:	d501      	bpl.n	8001054 <I2C_Flush_TXDR+0xc>
  {
    hi2c->Instance->TXDR = 0x00U;
 8001050:	2300      	movs	r3, #0
 8001052:	6293      	str	r3, [r2, #40]	@ 0x28
  }

  /* Flush TX register if not empty */
  if (__HAL_I2C_GET_FLAG(hi2c, I2C_FLAG_TXE) == RESET)
 8001054:	6803      	ldr	r3, [r0, #0]
 8001056:	699a      	ldr	r2, [r3, #24]
 8001058:	07d2      	lsls	r2, r2, #31
 800105a:	d403      	bmi.n	8001064 <I2C_Flush_TXDR+0x1c>
  {
    __HAL_I2C_CLEAR_FLAG(hi2c, I2C_FLAG_TXE);
 800105c:	699a      	ldr	r2, [r3, #24]
 800105e:	2101      	movs	r1, #1
 8001060:	430a      	orrs	r2, r1
 8001062:	619a      	str	r2, [r3, #24]
  }
}
 8001064:	4770      	bx	lr
	...

08001068 <I2C_TransferConfig>:
  *     @arg @ref I2C_GENERATE_START_WRITE Generate Restart for write request.
  * @retval None
  */
static void I2C_TransferConfig(I2C_HandleTypeDef *hi2c, uint16_t DevAddress, uint8_t Size, uint32_t Mode,
                               uint32_t Request)
{
 8001068:	b510      	push	{r4, lr}
  assert_param(IS_I2C_ALL_INSTANCE(hi2c->Instance));
  assert_param(IS_TRANSFER_MODE(Mode));
  assert_param(IS_TRANSFER_REQUEST(Request));

  /* Declaration of tmp to prevent undefined behavior of volatile usage */
  uint32_t tmp = ((uint32_t)(((uint32_t)DevAddress & I2C_CR2_SADD) | \
 800106a:	0589      	lsls	r1, r1, #22
 800106c:	0d89      	lsrs	r1, r1, #22
                             (((uint32_t)Size << I2C_CR2_NBYTES_Pos) & I2C_CR2_NBYTES) | \
 800106e:	0412      	lsls	r2, r2, #16
  uint32_t tmp = ((uint32_t)(((uint32_t)DevAddress & I2C_CR2_SADD) | \
 8001070:	4311      	orrs	r1, r2
                             (((uint32_t)Size << I2C_CR2_NBYTES_Pos) & I2C_CR2_NBYTES) | \
 8001072:	4319      	orrs	r1, r3
  uint32_t tmp = ((uint32_t)(((uint32_t)DevAddress & I2C_CR2_SADD) | \
 8001074:	9b02      	ldr	r3, [sp, #8]
 8001076:	4319      	orrs	r1, r3
 8001078:	0049      	lsls	r1, r1, #1
 800107a:	0849      	lsrs	r1, r1, #1
                             (uint32_t)Mode | (uint32_t)Request) & (~0x80000000U));

  /* update CR2 register */
  MODIFY_REG(hi2c->Instance->CR2, \
 800107c:	6804      	ldr	r4, [r0, #0]
 800107e:	6862      	ldr	r2, [r4, #4]
 8001080:	0d5b      	lsrs	r3, r3, #21
 8001082:	2080      	movs	r0, #128	@ 0x80
 8001084:	00c0      	lsls	r0, r0, #3
 8001086:	4003      	ands	r3, r0
 8001088:	4803      	ldr	r0, [pc, #12]	@ (8001098 <I2C_TransferConfig+0x30>)
 800108a:	4303      	orrs	r3, r0
 800108c:	439a      	bics	r2, r3
 800108e:	0013      	movs	r3, r2
 8001090:	430b      	orrs	r3, r1
 8001092:	6063      	str	r3, [r4, #4]
             ((I2C_CR2_SADD | I2C_CR2_NBYTES | I2C_CR2_RELOAD | I2C_CR2_AUTOEND | \
               (I2C_CR2_RD_WRN & (uint32_t)(Request >> (31U - I2C_CR2_RD_WRN_Pos))) | \
               I2C_CR2_START | I2C_CR2_STOP)), tmp);
}
 8001094:	bd10      	pop	{r4, pc}
 8001096:	46c0      	nop			@ (mov r8, r8)
 8001098:	03ff63ff 	.word	0x03ff63ff

0800109c <I2C_IsErrorOccurred>:
{
 800109c:	b5f0      	push	{r4, r5, r6, r7, lr}
 800109e:	46c6      	mov	lr, r8
 80010a0:	b500      	push	{lr}
 80010a2:	0004      	movs	r4, r0
 80010a4:	000d      	movs	r5, r1
 80010a6:	0017      	movs	r7, r2
  uint32_t itflag   = hi2c->Instance->ISR;
 80010a8:	6801      	ldr	r1, [r0, #0]
 80010aa:	698b      	ldr	r3, [r1, #24]
  if (HAL_IS_BIT_SET(itflag, I2C_FLAG_AF))
 80010ac:	2210      	movs	r2, #16
 80010ae:	0016      	movs	r6, r2
 80010b0:	401e      	ands	r6, r3
 80010b2:	421a      	tst	r2, r3
 80010b4:	d100      	bne.n	80010b8 <I2C_IsErrorOccurred+0x1c>
 80010b6:	e075      	b.n	80011a4 <I2C_IsErrorOccurred+0x108>
    __HAL_I2C_CLEAR_FLAG(hi2c, I2C_FLAG_AF);
 80010b8:	2310      	movs	r3, #16
 80010ba:	61cb      	str	r3, [r1, #28]
  uint32_t error_code = 0;
 80010bc:	2300      	movs	r3, #0
 80010be:	4698      	mov	r8, r3
  HAL_StatusTypeDef status = HAL_OK;
 80010c0:	2600      	movs	r6, #0
    while ((__HAL_I2C_GET_FLAG(hi2c, I2C_FLAG_STOPF) == RESET) && (status == HAL_OK))
 80010c2:	6820      	ldr	r0, [r4, #0]
 80010c4:	6983      	ldr	r3, [r0, #24]
 80010c6:	069b      	lsls	r3, r3, #26
 80010c8:	d431      	bmi.n	800112e <I2C_IsErrorOccurred+0x92>
 80010ca:	2e00      	cmp	r6, #0
 80010cc:	d12f      	bne.n	800112e <I2C_IsErrorOccurred+0x92>
      if (Timeout != HAL_MAX_DELAY)
 80010ce:	1c6b      	adds	r3, r5, #1
 80010d0:	d0f7      	beq.n	80010c2 <I2C_IsErrorOccurred+0x26>
        if (((HAL_GetTick() - tickstart) > Timeout) || (Timeout == 0U))
 80010d2:	f7ff fe81 	bl	8000dd8 <HAL_GetTick>
 80010d6:	1bc0      	subs	r0, r0, r7
 80010d8:	42a8      	cmp	r0, r5
 80010da:	d801      	bhi.n	80010e0 <I2C_IsErrorOccurred+0x44>
 80010dc:	2d00      	cmp	r5, #0
 80010de:	d1f0      	bne.n	80010c2 <I2C_IsErrorOccurred+0x26>
          tmp1 = (uint32_t)(hi2c->Instance->CR2 & I2C_CR2_STOP);
 80010e0:	6821      	ldr	r1, [r4, #0]
 80010e2:	684b      	ldr	r3, [r1, #4]
 80010e4:	2280      	movs	r2, #128	@ 0x80
 80010e6:	01d2      	lsls	r2, r2, #7
 80010e8:	4013      	ands	r3, r2
          tmp2 = hi2c->Mode;
 80010ea:	2242      	movs	r2, #66	@ 0x42
 80010ec:	5ca2      	ldrb	r2, [r4, r2]
 80010ee:	b2d2      	uxtb	r2, r2
          if ((__HAL_I2C_GET_FLAG(hi2c, I2C_FLAG_BUSY) != RESET) && \
 80010f0:	6988      	ldr	r0, [r1, #24]
 80010f2:	0400      	lsls	r0, r0, #16
 80010f4:	d503      	bpl.n	80010fe <I2C_IsErrorOccurred+0x62>
 80010f6:	2b00      	cmp	r3, #0
 80010f8:	d101      	bne.n	80010fe <I2C_IsErrorOccurred+0x62>
              (tmp1 != I2C_CR2_STOP) && \
 80010fa:	2a20      	cmp	r2, #32
 80010fc:	d10e      	bne.n	800111c <I2C_IsErrorOccurred+0x80>
          while (__HAL_I2C_GET_FLAG(hi2c, I2C_FLAG_STOPF) == RESET)
 80010fe:	6823      	ldr	r3, [r4, #0]
 8001100:	699b      	ldr	r3, [r3, #24]
 8001102:	069b      	lsls	r3, r3, #26
 8001104:	d4dd      	bmi.n	80010c2 <I2C_IsErrorOccurred+0x26>
            if ((HAL_GetTick() - tickstart) > I2C_TIMEOUT_STOPF)
 8001106:	f7ff fe67 	bl	8000dd8 <HAL_GetTick>
 800110a:	1bc0      	subs	r0, r0, r7
 800110c:	2819      	cmp	r0, #25
 800110e:	d9f6      	bls.n	80010fe <I2C_IsErrorOccurred+0x62>
              error_code |= HAL_I2C_ERROR_TIMEOUT;
 8001110:	2320      	movs	r3, #32
 8001112:	4642      	mov	r2, r8
 8001114:	431a      	orrs	r2, r3
 8001116:	4690      	mov	r8, r2
              status = HAL_ERROR;
 8001118:	2601      	movs	r6, #1
              break;
 800111a:	e7d2      	b.n	80010c2 <I2C_IsErrorOccurred+0x26>
            hi2c->Instance->CR2 |= I2C_CR2_STOP;
 800111c:	684a      	ldr	r2, [r1, #4]
 800111e:	2380      	movs	r3, #128	@ 0x80
 8001120:	01db      	lsls	r3, r3, #7
 8001122:	4313      	orrs	r3, r2
 8001124:	604b      	str	r3, [r1, #4]
            tickstart = HAL_GetTick();
 8001126:	f7ff fe57 	bl	8000dd8 <HAL_GetTick>
 800112a:	0007      	movs	r7, r0
 800112c:	e7e7      	b.n	80010fe <I2C_IsErrorOccurred+0x62>
    if (status == HAL_OK)
 800112e:	2e00      	cmp	r6, #0
 8001130:	d101      	bne.n	8001136 <I2C_IsErrorOccurred+0x9a>
      __HAL_I2C_CLEAR_FLAG(hi2c, I2C_FLAG_STOPF);
 8001132:	2320      	movs	r3, #32
 8001134:	61c3      	str	r3, [r0, #28]
    error_code |= HAL_I2C_ERROR_AF;
 8001136:	2604      	movs	r6, #4
 8001138:	4643      	mov	r3, r8
 800113a:	4333      	orrs	r3, r6
 800113c:	001e      	movs	r6, r3
    status = HAL_ERROR;
 800113e:	2501      	movs	r5, #1
  itflag = hi2c->Instance->ISR;
 8001140:	6822      	ldr	r2, [r4, #0]
 8001142:	6993      	ldr	r3, [r2, #24]
  if (HAL_IS_BIT_SET(itflag, I2C_FLAG_BERR))
 8001144:	05d9      	lsls	r1, r3, #23
 8001146:	d504      	bpl.n	8001152 <I2C_IsErrorOccurred+0xb6>
    error_code |= HAL_I2C_ERROR_BERR;
 8001148:	2101      	movs	r1, #1
 800114a:	430e      	orrs	r6, r1
    __HAL_I2C_CLEAR_FLAG(hi2c, I2C_FLAG_BERR);
 800114c:	31ff      	adds	r1, #255	@ 0xff
 800114e:	61d1      	str	r1, [r2, #28]
    status = HAL_ERROR;
 8001150:	2501      	movs	r5, #1
  if (HAL_IS_BIT_SET(itflag, I2C_FLAG_OVR))
 8001152:	055a      	lsls	r2, r3, #21
 8001154:	d506      	bpl.n	8001164 <I2C_IsErrorOccurred+0xc8>
    error_code |= HAL_I2C_ERROR_OVR;
 8001156:	2208      	movs	r2, #8
 8001158:	4316      	orrs	r6, r2
    __HAL_I2C_CLEAR_FLAG(hi2c, I2C_FLAG_OVR);
 800115a:	6822      	ldr	r2, [r4, #0]
 800115c:	2180      	movs	r1, #128	@ 0x80
 800115e:	00c9      	lsls	r1, r1, #3
 8001160:	61d1      	str	r1, [r2, #28]
    status = HAL_ERROR;
 8001162:	2501      	movs	r5, #1
  if (HAL_IS_BIT_SET(itflag, I2C_FLAG_ARLO))
 8001164:	059b      	lsls	r3, r3, #22
 8001166:	d51f      	bpl.n	80011a8 <I2C_IsErrorOccurred+0x10c>
    error_code |= HAL_I2C_ERROR_ARLO;
 8001168:	2302      	movs	r3, #2
 800116a:	431e      	orrs	r6, r3
    __HAL_I2C_CLEAR_FLAG(hi2c, I2C_FLAG_ARLO);
 800116c:	6823      	ldr	r3, [r4, #0]
 800116e:	2280      	movs	r2, #128	@ 0x80
 8001170:	0092      	lsls	r2, r2, #2
 8001172:	61da      	str	r2, [r3, #28]
    status = HAL_ERROR;
 8001174:	2501      	movs	r5, #1
    I2C_Flush_TXDR(hi2c);
 8001176:	0020      	movs	r0, r4
 8001178:	f7ff ff66 	bl	8001048 <I2C_Flush_TXDR>
    I2C_RESET_CR2(hi2c);
 800117c:	6822      	ldr	r2, [r4, #0]
 800117e:	6853      	ldr	r3, [r2, #4]
 8001180:	490b      	ldr	r1, [pc, #44]	@ (80011b0 <I2C_IsErrorOccurred+0x114>)
 8001182:	400b      	ands	r3, r1
 8001184:	6053      	str	r3, [r2, #4]
    hi2c->ErrorCode |= error_code;
 8001186:	6c63      	ldr	r3, [r4, #68]	@ 0x44
 8001188:	4333      	orrs	r3, r6
 800118a:	6463      	str	r3, [r4, #68]	@ 0x44
    hi2c->State = HAL_I2C_STATE_READY;
 800118c:	2341      	movs	r3, #65	@ 0x41
 800118e:	2220      	movs	r2, #32
 8001190:	54e2      	strb	r2, [r4, r3]
    hi2c->Mode = HAL_I2C_MODE_NONE;
 8001192:	2300      	movs	r3, #0
 8001194:	3222      	adds	r2, #34	@ 0x22
 8001196:	54a3      	strb	r3, [r4, r2]
    __HAL_UNLOCK(hi2c);
 8001198:	3a02      	subs	r2, #2
 800119a:	54a3      	strb	r3, [r4, r2]
}
 800119c:	0028      	movs	r0, r5
 800119e:	bc80      	pop	{r7}
 80011a0:	46b8      	mov	r8, r7
 80011a2:	bdf0      	pop	{r4, r5, r6, r7, pc}
  HAL_StatusTypeDef status = HAL_OK;
 80011a4:	2500      	movs	r5, #0
 80011a6:	e7cb      	b.n	8001140 <I2C_IsErrorOccurred+0xa4>
  if (status != HAL_OK)
 80011a8:	2d00      	cmp	r5, #0
 80011aa:	d0f7      	beq.n	800119c <I2C_IsErrorOccurred+0x100>
 80011ac:	e7e3      	b.n	8001176 <I2C_IsErrorOccurred+0xda>
 80011ae:	46c0      	nop			@ (mov r8, r8)
 80011b0:	fe00e800 	.word	0xfe00e800

080011b4 <I2C_WaitOnTXISFlagUntilTimeout>:
{
 80011b4:	b570      	push	{r4, r5, r6, lr}
 80011b6:	0004      	movs	r4, r0
 80011b8:	000d      	movs	r5, r1
 80011ba:	0016      	movs	r6, r2
  while (__HAL_I2C_GET_FLAG(hi2c, I2C_FLAG_TXIS) == RESET)
 80011bc:	6823      	ldr	r3, [r4, #0]
 80011be:	699b      	ldr	r3, [r3, #24]
 80011c0:	079b      	lsls	r3, r3, #30
 80011c2:	d420      	bmi.n	8001206 <I2C_WaitOnTXISFlagUntilTimeout+0x52>
    if (I2C_IsErrorOccurred(hi2c, Timeout, Tickstart) != HAL_OK)
 80011c4:	0032      	movs	r2, r6
 80011c6:	0029      	movs	r1, r5
 80011c8:	0020      	movs	r0, r4
 80011ca:	f7ff ff67 	bl	800109c <I2C_IsErrorOccurred>
 80011ce:	2800      	cmp	r0, #0
 80011d0:	d11b      	bne.n	800120a <I2C_WaitOnTXISFlagUntilTimeout+0x56>
    if (Timeout != HAL_MAX_DELAY)
 80011d2:	1c6b      	adds	r3, r5, #1
 80011d4:	d0f2      	beq.n	80011bc <I2C_WaitOnTXISFlagUntilTimeout+0x8>
      if (((HAL_GetTick() - Tickstart) > Timeout) || (Timeout == 0U))
 80011d6:	f7ff fdff 	bl	8000dd8 <HAL_GetTick>
 80011da:	1b80      	subs	r0, r0, r6
 80011dc:	42a8      	cmp	r0, r5
 80011de:	d801      	bhi.n	80011e4 <I2C_WaitOnTXISFlagUntilTimeout+0x30>
 80011e0:	2d00      	cmp	r5, #0
 80011e2:	d1eb      	bne.n	80011bc <I2C_WaitOnTXISFlagUntilTimeout+0x8>
        if ((__HAL_I2C_GET_FLAG(hi2c, I2C_FLAG_TXIS) == RESET))
 80011e4:	6823      	ldr	r3, [r4, #0]
 80011e6:	699b      	ldr	r3, [r3, #24]
 80011e8:	079b      	lsls	r3, r3, #30
 80011ea:	d4e7      	bmi.n	80011bc <I2C_WaitOnTXISFlagUntilTimeout+0x8>
          hi2c->ErrorCode |= HAL_I2C_ERROR_TIMEOUT;
 80011ec:	6c63      	ldr	r3, [r4, #68]	@ 0x44
 80011ee:	2220      	movs	r2, #32
 80011f0:	4313      	orrs	r3, r2
 80011f2:	6463      	str	r3, [r4, #68]	@ 0x44
          hi2c->State = HAL_I2C_STATE_READY;
 80011f4:	2341      	movs	r3, #65	@ 0x41
 80011f6:	54e2      	strb	r2, [r4, r3]
          hi2c->Mode = HAL_I2C_MODE_NONE;
 80011f8:	2300      	movs	r3, #0
 80011fa:	3222      	adds	r2, #34	@ 0x22
 80011fc:	54a3      	strb	r3, [r4, r2]
          __HAL_UNLOCK(hi2c);
 80011fe:	3a02      	subs	r2, #2
 8001200:	54a3      	strb	r3, [r4, r2]
          return HAL_ERROR;
 8001202:	2001      	movs	r0, #1
 8001204:	e000      	b.n	8001208 <I2C_WaitOnTXISFlagUntilTimeout+0x54>
  return HAL_OK;
 8001206:	2000      	movs	r0, #0
}
 8001208:	bd70      	pop	{r4, r5, r6, pc}
      return HAL_ERROR;
 800120a:	2001      	movs	r0, #1
 800120c:	e7fc      	b.n	8001208 <I2C_WaitOnTXISFlagUntilTimeout+0x54>

0800120e <I2C_WaitOnFlagUntilTimeout>:
{
 800120e:	b5f0      	push	{r4, r5, r6, r7, lr}
 8001210:	46ce      	mov	lr, r9
 8001212:	b500      	push	{lr}
 8001214:	b082      	sub	sp, #8
 8001216:	0007      	movs	r7, r0
 8001218:	000d      	movs	r5, r1
 800121a:	0016      	movs	r6, r2
 800121c:	4699      	mov	r9, r3
  while (__HAL_I2C_GET_FLAG(hi2c, Flag) == Status)
 800121e:	683b      	ldr	r3, [r7, #0]
 8001220:	699c      	ldr	r4, [r3, #24]
 8001222:	402c      	ands	r4, r5
 8001224:	1b64      	subs	r4, r4, r5
 8001226:	4263      	negs	r3, r4
 8001228:	415c      	adcs	r4, r3
 800122a:	9601      	str	r6, [sp, #4]
 800122c:	42b4      	cmp	r4, r6
 800122e:	d121      	bne.n	8001274 <I2C_WaitOnFlagUntilTimeout+0x66>
    if (Timeout != HAL_MAX_DELAY)
 8001230:	464b      	mov	r3, r9
 8001232:	3301      	adds	r3, #1
 8001234:	d0f3      	beq.n	800121e <I2C_WaitOnFlagUntilTimeout+0x10>
      if (((HAL_GetTick() - Tickstart) > Timeout) || (Timeout == 0U))
 8001236:	f7ff fdcf 	bl	8000dd8 <HAL_GetTick>
 800123a:	9b08      	ldr	r3, [sp, #32]
 800123c:	1ac0      	subs	r0, r0, r3
 800123e:	4548      	cmp	r0, r9
 8001240:	d802      	bhi.n	8001248 <I2C_WaitOnFlagUntilTimeout+0x3a>
 8001242:	464b      	mov	r3, r9
 8001244:	2b00      	cmp	r3, #0
 8001246:	d1ea      	bne.n	800121e <I2C_WaitOnFlagUntilTimeout+0x10>
        if ((__HAL_I2C_GET_FLAG(hi2c, Flag) == Status))
 8001248:	683b      	ldr	r3, [r7, #0]
 800124a:	699b      	ldr	r3, [r3, #24]
 800124c:	402b      	ands	r3, r5
 800124e:	1b5b      	subs	r3, r3, r5
 8001250:	425a      	negs	r2, r3
 8001252:	4153      	adcs	r3, r2
 8001254:	9a01      	ldr	r2, [sp, #4]
 8001256:	4293      	cmp	r3, r2
 8001258:	d1e1      	bne.n	800121e <I2C_WaitOnFlagUntilTimeout+0x10>
          hi2c->ErrorCode |= HAL_I2C_ERROR_TIMEOUT;
 800125a:	6c7b      	ldr	r3, [r7, #68]	@ 0x44
 800125c:	2220      	movs	r2, #32
 800125e:	4313      	orrs	r3, r2
 8001260:	647b      	str	r3, [r7, #68]	@ 0x44
          hi2c->State = HAL_I2C_STATE_READY;
 8001262:	2341      	movs	r3, #65	@ 0x41
 8001264:	54fa      	strb	r2, [r7, r3]
          hi2c->Mode = HAL_I2C_MODE_NONE;
 8001266:	2300      	movs	r3, #0
 8001268:	3222      	adds	r2, #34	@ 0x22
 800126a:	54bb      	strb	r3, [r7, r2]
          __HAL_UNLOCK(hi2c);
 800126c:	3a02      	subs	r2, #2
 800126e:	54bb      	strb	r3, [r7, r2]
          return HAL_ERROR;
 8001270:	2001      	movs	r0, #1
 8001272:	e000      	b.n	8001276 <I2C_WaitOnFlagUntilTimeout+0x68>
  return HAL_OK;
 8001274:	2000      	movs	r0, #0
}
 8001276:	b002      	add	sp, #8
 8001278:	bc80      	pop	{r7}
 800127a:	46b9      	mov	r9, r7
 800127c:	bdf0      	pop	{r4, r5, r6, r7, pc}

0800127e <I2C_WaitOnSTOPFlagUntilTimeout>:
{
 800127e:	b570      	push	{r4, r5, r6, lr}
 8001280:	0004      	movs	r4, r0
 8001282:	000d      	movs	r5, r1
 8001284:	0016      	movs	r6, r2
  while (__HAL_I2C_GET_FLAG(hi2c, I2C_FLAG_STOPF) == RESET)
 8001286:	e003      	b.n	8001290 <I2C_WaitOnSTOPFlagUntilTimeout+0x12>
      if ((__HAL_I2C_GET_FLAG(hi2c, I2C_FLAG_STOPF) == RESET))
 8001288:	6823      	ldr	r3, [r4, #0]
 800128a:	699b      	ldr	r3, [r3, #24]
 800128c:	069b      	lsls	r3, r3, #26
 800128e:	d512      	bpl.n	80012b6 <I2C_WaitOnSTOPFlagUntilTimeout+0x38>
  while (__HAL_I2C_GET_FLAG(hi2c, I2C_FLAG_STOPF) == RESET)
 8001290:	6823      	ldr	r3, [r4, #0]
 8001292:	699b      	ldr	r3, [r3, #24]
 8001294:	069b      	lsls	r3, r3, #26
 8001296:	d41b      	bmi.n	80012d0 <I2C_WaitOnSTOPFlagUntilTimeout+0x52>
    if (I2C_IsErrorOccurred(hi2c, Timeout, Tickstart) != HAL_OK)
 8001298:	0032      	movs	r2, r6
 800129a:	0029      	movs	r1, r5
 800129c:	0020      	movs	r0, r4
 800129e:	f7ff fefd 	bl	800109c <I2C_IsErrorOccurred>
 80012a2:	2800      	cmp	r0, #0
 80012a4:	d116      	bne.n	80012d4 <I2C_WaitOnSTOPFlagUntilTimeout+0x56>
    if (((HAL_GetTick() - Tickstart) > Timeout) || (Timeout == 0U))
 80012a6:	f7ff fd97 	bl	8000dd8 <HAL_GetTick>
 80012aa:	1b80      	subs	r0, r0, r6
 80012ac:	42a8      	cmp	r0, r5
 80012ae:	d8eb      	bhi.n	8001288 <I2C_WaitOnSTOPFlagUntilTimeout+0xa>
 80012b0:	2d00      	cmp	r5, #0
 80012b2:	d1ed      	bne.n	8001290 <I2C_WaitOnSTOPFlagUntilTimeout+0x12>
 80012b4:	e7e8      	b.n	8001288 <I2C_WaitOnSTOPFlagUntilTimeout+0xa>
        hi2c->ErrorCode |= HAL_I2C_ERROR_TIMEOUT;
 80012b6:	6c63      	ldr	r3, [r4, #68]	@ 0x44
 80012b8:	2220      	movs	r2, #32
 80012ba:	4313      	orrs	r3, r2
 80012bc:	6463      	str	r3, [r4, #68]	@ 0x44
        hi2c->State = HAL_I2C_STATE_READY;
 80012be:	2341      	movs	r3, #65	@ 0x41
 80012c0:	54e2      	strb	r2, [r4, r3]
        hi2c->Mode = HAL_I2C_MODE_NONE;
 80012c2:	2300      	movs	r3, #0
 80012c4:	3222      	adds	r2, #34	@ 0x22
 80012c6:	54a3      	strb	r3, [r4, r2]
        __HAL_UNLOCK(hi2c);
 80012c8:	3a02      	subs	r2, #2
 80012ca:	54a3      	strb	r3, [r4, r2]
        return HAL_ERROR;
 80012cc:	2001      	movs	r0, #1
 80012ce:	e000      	b.n	80012d2 <I2C_WaitOnSTOPFlagUntilTimeout+0x54>
  return HAL_OK;
 80012d0:	2000      	movs	r0, #0
}
 80012d2:	bd70      	pop	{r4, r5, r6, pc}
      return HAL_ERROR;
 80012d4:	2001      	movs	r0, #1
 80012d6:	e7fc      	b.n	80012d2 <I2C_WaitOnSTOPFlagUntilTimeout+0x54>

080012d8 <I2C_WaitOnRXNEFlagUntilTimeout>:
{
 80012d8:	b570      	push	{r4, r5, r6, lr}
 80012da:	0004      	movs	r4, r0
 80012dc:	000d      	movs	r5, r1
 80012de:	0016      	movs	r6, r2
  while (__HAL_I2C_GET_FLAG(hi2c, I2C_FLAG_RXNE) == RESET)
 80012e0:	e024      	b.n	800132c <I2C_WaitOnRXNEFlagUntilTimeout+0x54>
      if ((__HAL_I2C_GET_FLAG(hi2c, I2C_FLAG_RXNE) == SET) && (hi2c->XferSize > 0U))
 80012e2:	6993      	ldr	r3, [r2, #24]
 80012e4:	075b      	lsls	r3, r3, #29
 80012e6:	d502      	bpl.n	80012ee <I2C_WaitOnRXNEFlagUntilTimeout+0x16>
 80012e8:	8d23      	ldrh	r3, [r4, #40]	@ 0x28
 80012ea:	2b00      	cmp	r3, #0
 80012ec:	d141      	bne.n	8001372 <I2C_WaitOnRXNEFlagUntilTimeout+0x9a>
        if (__HAL_I2C_GET_FLAG(hi2c, I2C_FLAG_AF) == SET)
 80012ee:	6993      	ldr	r3, [r2, #24]
 80012f0:	06db      	lsls	r3, r3, #27
 80012f2:	d514      	bpl.n	800131e <I2C_WaitOnRXNEFlagUntilTimeout+0x46>
          __HAL_I2C_CLEAR_FLAG(hi2c, I2C_FLAG_AF);
 80012f4:	2310      	movs	r3, #16
 80012f6:	61d3      	str	r3, [r2, #28]
          hi2c->ErrorCode = HAL_I2C_ERROR_AF;
 80012f8:	3b0c      	subs	r3, #12
 80012fa:	6463      	str	r3, [r4, #68]	@ 0x44
        __HAL_I2C_CLEAR_FLAG(hi2c, I2C_FLAG_STOPF);
 80012fc:	6823      	ldr	r3, [r4, #0]
 80012fe:	2220      	movs	r2, #32
 8001300:	61da      	str	r2, [r3, #28]
        I2C_RESET_CR2(hi2c);
 8001302:	6821      	ldr	r1, [r4, #0]
 8001304:	684b      	ldr	r3, [r1, #4]
 8001306:	481c      	ldr	r0, [pc, #112]	@ (8001378 <I2C_WaitOnRXNEFlagUntilTimeout+0xa0>)
 8001308:	4003      	ands	r3, r0
 800130a:	604b      	str	r3, [r1, #4]
        hi2c->State = HAL_I2C_STATE_READY;
 800130c:	2341      	movs	r3, #65	@ 0x41
 800130e:	54e2      	strb	r2, [r4, r3]
        hi2c->Mode = HAL_I2C_MODE_NONE;
 8001310:	2300      	movs	r3, #0
 8001312:	3222      	adds	r2, #34	@ 0x22
 8001314:	54a3      	strb	r3, [r4, r2]
        __HAL_UNLOCK(hi2c);
 8001316:	3a02      	subs	r2, #2
 8001318:	54a3      	strb	r3, [r4, r2]
        return HAL_ERROR;
 800131a:	2001      	movs	r0, #1
 800131c:	e029      	b.n	8001372 <I2C_WaitOnRXNEFlagUntilTimeout+0x9a>
          hi2c->ErrorCode = HAL_I2C_ERROR_NONE;
 800131e:	2300      	movs	r3, #0
 8001320:	6463      	str	r3, [r4, #68]	@ 0x44
 8001322:	e7eb      	b.n	80012fc <I2C_WaitOnRXNEFlagUntilTimeout+0x24>
      if ((__HAL_I2C_GET_FLAG(hi2c, I2C_FLAG_RXNE) == RESET))
 8001324:	6823      	ldr	r3, [r4, #0]
 8001326:	699b      	ldr	r3, [r3, #24]
 8001328:	075b      	lsls	r3, r3, #29
 800132a:	d516      	bpl.n	800135a <I2C_WaitOnRXNEFlagUntilTimeout+0x82>
  while (__HAL_I2C_GET_FLAG(hi2c, I2C_FLAG_RXNE) == RESET)
 800132c:	6823      	ldr	r3, [r4, #0]
 800132e:	699b      	ldr	r3, [r3, #24]
 8001330:	075b      	lsls	r3, r3, #29
 8001332:	d41d      	bmi.n	8001370 <I2C_WaitOnRXNEFlagUntilTimeout+0x98>
    if (I2C_IsErrorOccurred(hi2c, Timeout, Tickstart) != HAL_OK)
 8001334:	0032      	movs	r2, r6
 8001336:	0029      	movs	r1, r5
 8001338:	0020      	movs	r0, r4
 800133a:	f7ff feaf 	bl	800109c <I2C_IsErrorOccurred>
 800133e:	2800      	cmp	r0, #0
 8001340:	d118      	bne.n	8001374 <I2C_WaitOnRXNEFlagUntilTimeout+0x9c>
    if (__HAL_I2C_GET_FLAG(hi2c, I2C_FLAG_STOPF) == SET)
 8001342:	6822      	ldr	r2, [r4, #0]
 8001344:	6993      	ldr	r3, [r2, #24]
 8001346:	069b      	lsls	r3, r3, #26
 8001348:	d4cb      	bmi.n	80012e2 <I2C_WaitOnRXNEFlagUntilTimeout+0xa>
    if (((HAL_GetTick() - Tickstart) > Timeout) || (Timeout == 0U))
 800134a:	f7ff fd45 	bl	8000dd8 <HAL_GetTick>
 800134e:	1b80      	subs	r0, r0, r6
 8001350:	42a8      	cmp	r0, r5
 8001352:	d8e7      	bhi.n	8001324 <I2C_WaitOnRXNEFlagUntilTimeout+0x4c>
 8001354:	2d00      	cmp	r5, #0
 8001356:	d1e9      	bne.n	800132c <I2C_WaitOnRXNEFlagUntilTimeout+0x54>
 8001358:	e7e4      	b.n	8001324 <I2C_WaitOnRXNEFlagUntilTimeout+0x4c>
        hi2c->ErrorCode |= HAL_I2C_ERROR_TIMEOUT;
 800135a:	6c63      	ldr	r3, [r4, #68]	@ 0x44
 800135c:	2220      	movs	r2, #32
 800135e:	4313      	orrs	r3, r2
 8001360:	6463      	str	r3, [r4, #68]	@ 0x44
        hi2c->State = HAL_I2C_STATE_READY;
 8001362:	2341      	movs	r3, #65	@ 0x41
 8001364:	54e2      	strb	r2, [r4, r3]
        __HAL_UNLOCK(hi2c);
 8001366:	3b01      	subs	r3, #1
 8001368:	2200      	movs	r2, #0
 800136a:	54e2      	strb	r2, [r4, r3]
        return HAL_ERROR;
 800136c:	2001      	movs	r0, #1
 800136e:	e000      	b.n	8001372 <I2C_WaitOnRXNEFlagUntilTimeout+0x9a>
  return HAL_OK;
 8001370:	2000      	movs	r0, #0
}
 8001372:	bd70      	pop	{r4, r5, r6, pc}
      return HAL_ERROR;
 8001374:	2001      	movs	r0, #1
 8001376:	e7fc      	b.n	8001372 <I2C_WaitOnRXNEFlagUntilTimeout+0x9a>
 8001378:	fe00e800 	.word	0xfe00e800

0800137c <HAL_I2C_Init>:
{
 800137c:	b510      	push	{r4, lr}
 800137e:	1e04      	subs	r4, r0, #0
  if (hi2c == NULL)
 8001380:	d059      	beq.n	8001436 <HAL_I2C_Init+0xba>
  if (hi2c->State == HAL_I2C_STATE_RESET)
 8001382:	2341      	movs	r3, #65	@ 0x41
 8001384:	5cc3      	ldrb	r3, [r0, r3]
 8001386:	2b00      	cmp	r3, #0
 8001388:	d043      	beq.n	8001412 <HAL_I2C_Init+0x96>
  hi2c->State = HAL_I2C_STATE_BUSY;
 800138a:	2341      	movs	r3, #65	@ 0x41
 800138c:	2224      	movs	r2, #36	@ 0x24
 800138e:	54e2      	strb	r2, [r4, r3]
  __HAL_I2C_DISABLE(hi2c);
 8001390:	6822      	ldr	r2, [r4, #0]
 8001392:	6813      	ldr	r3, [r2, #0]
 8001394:	2101      	movs	r1, #1
 8001396:	438b      	bics	r3, r1
 8001398:	6013      	str	r3, [r2, #0]
  hi2c->Instance->TIMINGR = hi2c->Init.Timing & TIMING_CLEAR_MASK;
 800139a:	6863      	ldr	r3, [r4, #4]
 800139c:	6822      	ldr	r2, [r4, #0]
 800139e:	4927      	ldr	r1, [pc, #156]	@ (800143c <HAL_I2C_Init+0xc0>)
 80013a0:	400b      	ands	r3, r1
 80013a2:	6113      	str	r3, [r2, #16]
  hi2c->Instance->OAR1 &= ~I2C_OAR1_OA1EN;
 80013a4:	6822      	ldr	r2, [r4, #0]
 80013a6:	6893      	ldr	r3, [r2, #8]
 80013a8:	4925      	ldr	r1, [pc, #148]	@ (8001440 <HAL_I2C_Init+0xc4>)
 80013aa:	400b      	ands	r3, r1
 80013ac:	6093      	str	r3, [r2, #8]
  if (hi2c->Init.AddressingMode == I2C_ADDRESSINGMODE_7BIT)
 80013ae:	68e3      	ldr	r3, [r4, #12]
 80013b0:	2b01      	cmp	r3, #1
 80013b2:	d034      	beq.n	800141e <HAL_I2C_Init+0xa2>
    hi2c->Instance->OAR1 = (I2C_OAR1_OA1EN | I2C_OAR1_OA1MODE | hi2c->Init.OwnAddress1);
 80013b4:	68a1      	ldr	r1, [r4, #8]
 80013b6:	6822      	ldr	r2, [r4, #0]
 80013b8:	2384      	movs	r3, #132	@ 0x84
 80013ba:	021b      	lsls	r3, r3, #8
 80013bc:	430b      	orrs	r3, r1
 80013be:	6093      	str	r3, [r2, #8]
  if (hi2c->Init.AddressingMode == I2C_ADDRESSINGMODE_10BIT)
 80013c0:	68e3      	ldr	r3, [r4, #12]
 80013c2:	2b02      	cmp	r3, #2
 80013c4:	d032      	beq.n	800142c <HAL_I2C_Init+0xb0>
  hi2c->Instance->CR2 |= (I2C_CR2_AUTOEND | I2C_CR2_NACK);
 80013c6:	6822      	ldr	r2, [r4, #0]
 80013c8:	6851      	ldr	r1, [r2, #4]
 80013ca:	4b1e      	ldr	r3, [pc, #120]	@ (8001444 <HAL_I2C_Init+0xc8>)
 80013cc:	430b      	orrs	r3, r1
 80013ce:	6053      	str	r3, [r2, #4]
  hi2c->Instance->OAR2 &= ~I2C_DUALADDRESS_ENABLE;
 80013d0:	6822      	ldr	r2, [r4, #0]
 80013d2:	68d3      	ldr	r3, [r2, #12]
 80013d4:	491a      	ldr	r1, [pc, #104]	@ (8001440 <HAL_I2C_Init+0xc4>)
 80013d6:	400b      	ands	r3, r1
 80013d8:	60d3      	str	r3, [r2, #12]
  hi2c->Instance->OAR2 = (hi2c->Init.DualAddressMode | hi2c->Init.OwnAddress2 | \
 80013da:	6923      	ldr	r3, [r4, #16]
 80013dc:	6962      	ldr	r2, [r4, #20]
 80013de:	4313      	orrs	r3, r2
                          (hi2c->Init.OwnAddress2Masks << 8));
 80013e0:	69a2      	ldr	r2, [r4, #24]
 80013e2:	0212      	lsls	r2, r2, #8
  hi2c->Instance->OAR2 = (hi2c->Init.DualAddressMode | hi2c->Init.OwnAddress2 | \
 80013e4:	6821      	ldr	r1, [r4, #0]
 80013e6:	4313      	orrs	r3, r2
 80013e8:	60cb      	str	r3, [r1, #12]
  hi2c->Instance->CR1 = (hi2c->Init.GeneralCallMode | hi2c->Init.NoStretchMode);
 80013ea:	69e3      	ldr	r3, [r4, #28]
 80013ec:	6a21      	ldr	r1, [r4, #32]
 80013ee:	6822      	ldr	r2, [r4, #0]
 80013f0:	430b      	orrs	r3, r1
 80013f2:	6013      	str	r3, [r2, #0]
  __HAL_I2C_ENABLE(hi2c);
 80013f4:	6822      	ldr	r2, [r4, #0]
 80013f6:	6813      	ldr	r3, [r2, #0]
 80013f8:	2101      	movs	r1, #1
 80013fa:	430b      	orrs	r3, r1
 80013fc:	6013      	str	r3, [r2, #0]
  hi2c->ErrorCode = HAL_I2C_ERROR_NONE;
 80013fe:	2300      	movs	r3, #0
 8001400:	6463      	str	r3, [r4, #68]	@ 0x44
  hi2c->State = HAL_I2C_STATE_READY;
 8001402:	2241      	movs	r2, #65	@ 0x41
 8001404:	311f      	adds	r1, #31
 8001406:	54a1      	strb	r1, [r4, r2]
  hi2c->PreviousState = I2C_STATE_NONE;
 8001408:	6323      	str	r3, [r4, #48]	@ 0x30
  hi2c->Mode = HAL_I2C_MODE_NONE;
 800140a:	3201      	adds	r2, #1
 800140c:	54a3      	strb	r3, [r4, r2]
  return HAL_OK;
 800140e:	2000      	movs	r0, #0
}
 8001410:	bd10      	pop	{r4, pc}
    hi2c->Lock = HAL_UNLOCKED;
 8001412:	3340      	adds	r3, #64	@ 0x40
 8001414:	2200      	movs	r2, #0
 8001416:	54c2      	strb	r2, [r0, r3]
    HAL_I2C_MspInit(hi2c);
 8001418:	f7ff faae 	bl	8000978 <HAL_I2C_MspInit>
 800141c:	e7b5      	b.n	800138a <HAL_I2C_Init+0xe>
    hi2c->Instance->OAR1 = (I2C_OAR1_OA1EN | hi2c->Init.OwnAddress1);
 800141e:	68a1      	ldr	r1, [r4, #8]
 8001420:	6822      	ldr	r2, [r4, #0]
 8001422:	2380      	movs	r3, #128	@ 0x80
 8001424:	021b      	lsls	r3, r3, #8
 8001426:	430b      	orrs	r3, r1
 8001428:	6093      	str	r3, [r2, #8]
 800142a:	e7c9      	b.n	80013c0 <HAL_I2C_Init+0x44>
    hi2c->Instance->CR2 = (I2C_CR2_ADD10);
 800142c:	6823      	ldr	r3, [r4, #0]
 800142e:	2280      	movs	r2, #128	@ 0x80
 8001430:	0112      	lsls	r2, r2, #4
 8001432:	605a      	str	r2, [r3, #4]
 8001434:	e7c7      	b.n	80013c6 <HAL_I2C_Init+0x4a>
    return HAL_ERROR;
 8001436:	2001      	movs	r0, #1
 8001438:	e7ea      	b.n	8001410 <HAL_I2C_Init+0x94>
 800143a:	46c0      	nop			@ (mov r8, r8)
 800143c:	f0ffffff 	.word	0xf0ffffff
 8001440:	ffff7fff 	.word	0xffff7fff
 8001444:	02008000 	.word	0x02008000

08001448 <HAL_I2C_Master_Transmit>:
{
 8001448:	b5f0      	push	{r4, r5, r6, r7, lr}
 800144a:	b085      	sub	sp, #20
 800144c:	0004      	movs	r4, r0
 800144e:	000f      	movs	r7, r1
 8001450:	9202      	str	r2, [sp, #8]
 8001452:	9303      	str	r3, [sp, #12]
 8001454:	9d0a      	ldr	r5, [sp, #40]	@ 0x28
  if (hi2c->State == HAL_I2C_STATE_READY)
 8001456:	2341      	movs	r3, #65	@ 0x41
 8001458:	5cc3      	ldrb	r3, [r0, r3]
 800145a:	2b20      	cmp	r3, #32
 800145c:	d000      	beq.n	8001460 <HAL_I2C_Master_Transmit+0x18>
 800145e:	e09b      	b.n	8001598 <HAL_I2C_Master_Transmit+0x150>
    __HAL_LOCK(hi2c);
 8001460:	3320      	adds	r3, #32
 8001462:	5cc3      	ldrb	r3, [r0, r3]
 8001464:	2b01      	cmp	r3, #1
 8001466:	d100      	bne.n	800146a <HAL_I2C_Master_Transmit+0x22>
 8001468:	e099      	b.n	800159e <HAL_I2C_Master_Transmit+0x156>
 800146a:	2340      	movs	r3, #64	@ 0x40
 800146c:	2201      	movs	r2, #1
 800146e:	54c2      	strb	r2, [r0, r3]
    tickstart = HAL_GetTick();
 8001470:	f7ff fcb2 	bl	8000dd8 <HAL_GetTick>
 8001474:	0006      	movs	r6, r0
    if (I2C_WaitOnFlagUntilTimeout(hi2c, I2C_FLAG_BUSY, SET, I2C_TIMEOUT_BUSY, tickstart) != HAL_OK)
 8001476:	2180      	movs	r1, #128	@ 0x80
 8001478:	9000      	str	r0, [sp, #0]
 800147a:	2319      	movs	r3, #25
 800147c:	2201      	movs	r2, #1
 800147e:	0209      	lsls	r1, r1, #8
 8001480:	0020      	movs	r0, r4
 8001482:	f7ff fec4 	bl	800120e <I2C_WaitOnFlagUntilTimeout>
 8001486:	2800      	cmp	r0, #0
 8001488:	d000      	beq.n	800148c <HAL_I2C_Master_Transmit+0x44>
 800148a:	e08a      	b.n	80015a2 <HAL_I2C_Master_Transmit+0x15a>
    hi2c->State     = HAL_I2C_STATE_BUSY_TX;
 800148c:	2341      	movs	r3, #65	@ 0x41
 800148e:	2221      	movs	r2, #33	@ 0x21
 8001490:	54e2      	strb	r2, [r4, r3]
    hi2c->Mode      = HAL_I2C_MODE_MASTER;
 8001492:	3301      	adds	r3, #1
 8001494:	3a11      	subs	r2, #17
 8001496:	54e2      	strb	r2, [r4, r3]
    hi2c->ErrorCode = HAL_I2C_ERROR_NONE;
 8001498:	2300      	movs	r3, #0
 800149a:	6463      	str	r3, [r4, #68]	@ 0x44
    hi2c->pBuffPtr  = pData;
 800149c:	9a02      	ldr	r2, [sp, #8]
 800149e:	6262      	str	r2, [r4, #36]	@ 0x24
    hi2c->XferCount = Size;
 80014a0:	9a03      	ldr	r2, [sp, #12]
 80014a2:	8562      	strh	r2, [r4, #42]	@ 0x2a
    hi2c->XferISR   = NULL;
 80014a4:	6363      	str	r3, [r4, #52]	@ 0x34
    if (hi2c->XferCount > MAX_NBYTE_SIZE)
 80014a6:	8d63      	ldrh	r3, [r4, #42]	@ 0x2a
 80014a8:	b29b      	uxth	r3, r3
 80014aa:	2bff      	cmp	r3, #255	@ 0xff
 80014ac:	d90b      	bls.n	80014c6 <HAL_I2C_Master_Transmit+0x7e>
      hi2c->XferSize = MAX_NBYTE_SIZE;
 80014ae:	23ff      	movs	r3, #255	@ 0xff
 80014b0:	8523      	strh	r3, [r4, #40]	@ 0x28
      I2C_TransferConfig(hi2c, DevAddress, (uint8_t)hi2c->XferSize, I2C_RELOAD_MODE,
 80014b2:	3b7f      	subs	r3, #127	@ 0x7f
 80014b4:	4a3f      	ldr	r2, [pc, #252]	@ (80015b4 <HAL_I2C_Master_Transmit+0x16c>)
 80014b6:	9200      	str	r2, [sp, #0]
 80014b8:	045b      	lsls	r3, r3, #17
 80014ba:	22ff      	movs	r2, #255	@ 0xff
 80014bc:	0039      	movs	r1, r7
 80014be:	0020      	movs	r0, r4
 80014c0:	f7ff fdd2 	bl	8001068 <I2C_TransferConfig>
 80014c4:	e018      	b.n	80014f8 <HAL_I2C_Master_Transmit+0xb0>
      hi2c->XferSize = hi2c->XferCount;
 80014c6:	8d62      	ldrh	r2, [r4, #42]	@ 0x2a
 80014c8:	b292      	uxth	r2, r2
 80014ca:	8522      	strh	r2, [r4, #40]	@ 0x28
      I2C_TransferConfig(hi2c, DevAddress, (uint8_t)hi2c->XferSize, I2C_AUTOEND_MODE,
 80014cc:	2380      	movs	r3, #128	@ 0x80
 80014ce:	b2d2      	uxtb	r2, r2
 80014d0:	4938      	ldr	r1, [pc, #224]	@ (80015b4 <HAL_I2C_Master_Transmit+0x16c>)
 80014d2:	9100      	str	r1, [sp, #0]
 80014d4:	049b      	lsls	r3, r3, #18
 80014d6:	0039      	movs	r1, r7
 80014d8:	0020      	movs	r0, r4
 80014da:	f7ff fdc5 	bl	8001068 <I2C_TransferConfig>
 80014de:	e00b      	b.n	80014f8 <HAL_I2C_Master_Transmit+0xb0>
          hi2c->XferSize = hi2c->XferCount;
 80014e0:	8d62      	ldrh	r2, [r4, #42]	@ 0x2a
 80014e2:	b292      	uxth	r2, r2
 80014e4:	8522      	strh	r2, [r4, #40]	@ 0x28
          I2C_TransferConfig(hi2c, DevAddress, (uint8_t)hi2c->XferSize, I2C_AUTOEND_MODE,
 80014e6:	2380      	movs	r3, #128	@ 0x80
 80014e8:	b2d2      	uxtb	r2, r2
 80014ea:	2100      	movs	r1, #0
 80014ec:	9100      	str	r1, [sp, #0]
 80014ee:	049b      	lsls	r3, r3, #18
 80014f0:	0039      	movs	r1, r7
 80014f2:	0020      	movs	r0, r4
 80014f4:	f7ff fdb8 	bl	8001068 <I2C_TransferConfig>
    while (hi2c->XferCount > 0U)
 80014f8:	8d63      	ldrh	r3, [r4, #42]	@ 0x2a
 80014fa:	b29b      	uxth	r3, r3
 80014fc:	2b00      	cmp	r3, #0
 80014fe:	d034      	beq.n	800156a <HAL_I2C_Master_Transmit+0x122>
      if (I2C_WaitOnTXISFlagUntilTimeout(hi2c, Timeout, tickstart) != HAL_OK)
 8001500:	0032      	movs	r2, r6
 8001502:	0029      	movs	r1, r5
 8001504:	0020      	movs	r0, r4
 8001506:	f7ff fe55 	bl	80011b4 <I2C_WaitOnTXISFlagUntilTimeout>
 800150a:	2800      	cmp	r0, #0
 800150c:	d14b      	bne.n	80015a6 <HAL_I2C_Master_Transmit+0x15e>
      hi2c->Instance->TXDR = *hi2c->pBuffPtr;
 800150e:	6a62      	ldr	r2, [r4, #36]	@ 0x24
 8001510:	6823      	ldr	r3, [r4, #0]
 8001512:	7812      	ldrb	r2, [r2, #0]
 8001514:	629a      	str	r2, [r3, #40]	@ 0x28
      hi2c->pBuffPtr++;
 8001516:	6a63      	ldr	r3, [r4, #36]	@ 0x24
 8001518:	3301      	adds	r3, #1
 800151a:	6263      	str	r3, [r4, #36]	@ 0x24
      hi2c->XferCount--;
 800151c:	8d63      	ldrh	r3, [r4, #42]	@ 0x2a
 800151e:	3b01      	subs	r3, #1
 8001520:	b29b      	uxth	r3, r3
 8001522:	8563      	strh	r3, [r4, #42]	@ 0x2a
      hi2c->XferSize--;
 8001524:	8d23      	ldrh	r3, [r4, #40]	@ 0x28
 8001526:	3b01      	subs	r3, #1
 8001528:	b29b      	uxth	r3, r3
 800152a:	8523      	strh	r3, [r4, #40]	@ 0x28
      if ((hi2c->XferCount != 0U) && (hi2c->XferSize == 0U))
 800152c:	8d62      	ldrh	r2, [r4, #42]	@ 0x2a
 800152e:	b292      	uxth	r2, r2
 8001530:	2a00      	cmp	r2, #0
 8001532:	d0e1      	beq.n	80014f8 <HAL_I2C_Master_Transmit+0xb0>
 8001534:	2b00      	cmp	r3, #0
 8001536:	d1df      	bne.n	80014f8 <HAL_I2C_Master_Transmit+0xb0>
        if (I2C_WaitOnFlagUntilTimeout(hi2c, I2C_FLAG_TCR, RESET, Timeout, tickstart) != HAL_OK)
 8001538:	9600      	str	r6, [sp, #0]
 800153a:	002b      	movs	r3, r5
 800153c:	2200      	movs	r2, #0
 800153e:	2180      	movs	r1, #128	@ 0x80
 8001540:	0020      	movs	r0, r4
 8001542:	f7ff fe64 	bl	800120e <I2C_WaitOnFlagUntilTimeout>
 8001546:	2800      	cmp	r0, #0
 8001548:	d12f      	bne.n	80015aa <HAL_I2C_Master_Transmit+0x162>
        if (hi2c->XferCount > MAX_NBYTE_SIZE)
 800154a:	8d63      	ldrh	r3, [r4, #42]	@ 0x2a
 800154c:	b29b      	uxth	r3, r3
 800154e:	2bff      	cmp	r3, #255	@ 0xff
 8001550:	d9c6      	bls.n	80014e0 <HAL_I2C_Master_Transmit+0x98>
          hi2c->XferSize = MAX_NBYTE_SIZE;
 8001552:	23ff      	movs	r3, #255	@ 0xff
 8001554:	8523      	strh	r3, [r4, #40]	@ 0x28
          I2C_TransferConfig(hi2c, DevAddress, (uint8_t)hi2c->XferSize, I2C_RELOAD_MODE,
 8001556:	3b7f      	subs	r3, #127	@ 0x7f
 8001558:	2200      	movs	r2, #0
 800155a:	9200      	str	r2, [sp, #0]
 800155c:	045b      	lsls	r3, r3, #17
 800155e:	32ff      	adds	r2, #255	@ 0xff
 8001560:	0039      	movs	r1, r7
 8001562:	0020      	movs	r0, r4
 8001564:	f7ff fd80 	bl	8001068 <I2C_TransferConfig>
 8001568:	e7c6      	b.n	80014f8 <HAL_I2C_Master_Transmit+0xb0>
    if (I2C_WaitOnSTOPFlagUntilTimeout(hi2c, Timeout, tickstart) != HAL_OK)
 800156a:	0032      	movs	r2, r6
 800156c:	0029      	movs	r1, r5
 800156e:	0020      	movs	r0, r4
 8001570:	f7ff fe85 	bl	800127e <I2C_WaitOnSTOPFlagUntilTimeout>
 8001574:	2800      	cmp	r0, #0
 8001576:	d11a      	bne.n	80015ae <HAL_I2C_Master_Transmit+0x166>
    __HAL_I2C_CLEAR_FLAG(hi2c, I2C_FLAG_STOPF);
 8001578:	6823      	ldr	r3, [r4, #0]
 800157a:	2220      	movs	r2, #32
 800157c:	61da      	str	r2, [r3, #28]
    I2C_RESET_CR2(hi2c);
 800157e:	6821      	ldr	r1, [r4, #0]
 8001580:	684b      	ldr	r3, [r1, #4]
 8001582:	4d0d      	ldr	r5, [pc, #52]	@ (80015b8 <HAL_I2C_Master_Transmit+0x170>)
 8001584:	402b      	ands	r3, r5
 8001586:	604b      	str	r3, [r1, #4]
    hi2c->State = HAL_I2C_STATE_READY;
 8001588:	2341      	movs	r3, #65	@ 0x41
 800158a:	54e2      	strb	r2, [r4, r3]
    hi2c->Mode  = HAL_I2C_MODE_NONE;
 800158c:	2300      	movs	r3, #0
 800158e:	3222      	adds	r2, #34	@ 0x22
 8001590:	54a3      	strb	r3, [r4, r2]
    __HAL_UNLOCK(hi2c);
 8001592:	3a02      	subs	r2, #2
 8001594:	54a3      	strb	r3, [r4, r2]
    return HAL_OK;
 8001596:	e000      	b.n	800159a <HAL_I2C_Master_Transmit+0x152>
    return HAL_BUSY;
 8001598:	2002      	movs	r0, #2
}
 800159a:	b005      	add	sp, #20
 800159c:	bdf0      	pop	{r4, r5, r6, r7, pc}
    __HAL_LOCK(hi2c);
 800159e:	2002      	movs	r0, #2
 80015a0:	e7fb      	b.n	800159a <HAL_I2C_Master_Transmit+0x152>
      return HAL_ERROR;
 80015a2:	2001      	movs	r0, #1
 80015a4:	e7f9      	b.n	800159a <HAL_I2C_Master_Transmit+0x152>
        return HAL_ERROR;
 80015a6:	2001      	movs	r0, #1
 80015a8:	e7f7      	b.n	800159a <HAL_I2C_Master_Transmit+0x152>
          return HAL_ERROR;
 80015aa:	2001      	movs	r0, #1
 80015ac:	e7f5      	b.n	800159a <HAL_I2C_Master_Transmit+0x152>
      return HAL_ERROR;
 80015ae:	2001      	movs	r0, #1
 80015b0:	e7f3      	b.n	800159a <HAL_I2C_Master_Transmit+0x152>
 80015b2:	46c0      	nop			@ (mov r8, r8)
 80015b4:	80002000 	.word	0x80002000
 80015b8:	fe00e800 	.word	0xfe00e800

080015bc <HAL_I2C_Master_Receive>:
{
 80015bc:	b5f0      	push	{r4, r5, r6, r7, lr}
 80015be:	b085      	sub	sp, #20
 80015c0:	0004      	movs	r4, r0
 80015c2:	000f      	movs	r7, r1
 80015c4:	9202      	str	r2, [sp, #8]
 80015c6:	9303      	str	r3, [sp, #12]
 80015c8:	9d0a      	ldr	r5, [sp, #40]	@ 0x28
  if (hi2c->State == HAL_I2C_STATE_READY)
 80015ca:	2341      	movs	r3, #65	@ 0x41
 80015cc:	5cc3      	ldrb	r3, [r0, r3]
 80015ce:	2b20      	cmp	r3, #32
 80015d0:	d000      	beq.n	80015d4 <HAL_I2C_Master_Receive+0x18>
 80015d2:	e09b      	b.n	800170c <HAL_I2C_Master_Receive+0x150>
    __HAL_LOCK(hi2c);
 80015d4:	3320      	adds	r3, #32
 80015d6:	5cc3      	ldrb	r3, [r0, r3]
 80015d8:	2b01      	cmp	r3, #1
 80015da:	d100      	bne.n	80015de <HAL_I2C_Master_Receive+0x22>
 80015dc:	e099      	b.n	8001712 <HAL_I2C_Master_Receive+0x156>
 80015de:	2340      	movs	r3, #64	@ 0x40
 80015e0:	2201      	movs	r2, #1
 80015e2:	54c2      	strb	r2, [r0, r3]
    tickstart = HAL_GetTick();
 80015e4:	f7ff fbf8 	bl	8000dd8 <HAL_GetTick>
 80015e8:	0006      	movs	r6, r0
    if (I2C_WaitOnFlagUntilTimeout(hi2c, I2C_FLAG_BUSY, SET, I2C_TIMEOUT_BUSY, tickstart) != HAL_OK)
 80015ea:	2180      	movs	r1, #128	@ 0x80
 80015ec:	9000      	str	r0, [sp, #0]
 80015ee:	2319      	movs	r3, #25
 80015f0:	2201      	movs	r2, #1
 80015f2:	0209      	lsls	r1, r1, #8
 80015f4:	0020      	movs	r0, r4
 80015f6:	f7ff fe0a 	bl	800120e <I2C_WaitOnFlagUntilTimeout>
 80015fa:	2800      	cmp	r0, #0
 80015fc:	d000      	beq.n	8001600 <HAL_I2C_Master_Receive+0x44>
 80015fe:	e08a      	b.n	8001716 <HAL_I2C_Master_Receive+0x15a>
    hi2c->State     = HAL_I2C_STATE_BUSY_RX;
 8001600:	2341      	movs	r3, #65	@ 0x41
 8001602:	2222      	movs	r2, #34	@ 0x22
 8001604:	54e2      	strb	r2, [r4, r3]
    hi2c->Mode      = HAL_I2C_MODE_MASTER;
 8001606:	3301      	adds	r3, #1
 8001608:	3a12      	subs	r2, #18
 800160a:	54e2      	strb	r2, [r4, r3]
    hi2c->ErrorCode = HAL_I2C_ERROR_NONE;
 800160c:	2300      	movs	r3, #0
 800160e:	6463      	str	r3, [r4, #68]	@ 0x44
    hi2c->pBuffPtr  = pData;
 8001610:	9a02      	ldr	r2, [sp, #8]
 8001612:	6262      	str	r2, [r4, #36]	@ 0x24
    hi2c->XferCount = Size;
 8001614:	9a03      	ldr	r2, [sp, #12]
 8001616:	8562      	strh	r2, [r4, #42]	@ 0x2a
    hi2c->XferISR   = NULL;
 8001618:	6363      	str	r3, [r4, #52]	@ 0x34
    if (hi2c->XferCount > MAX_NBYTE_SIZE)
 800161a:	8d63      	ldrh	r3, [r4, #42]	@ 0x2a
 800161c:	b29b      	uxth	r3, r3
 800161e:	2bff      	cmp	r3, #255	@ 0xff
 8001620:	d90b      	bls.n	800163a <HAL_I2C_Master_Receive+0x7e>
      hi2c->XferSize = MAX_NBYTE_SIZE;
 8001622:	23ff      	movs	r3, #255	@ 0xff
 8001624:	8523      	strh	r3, [r4, #40]	@ 0x28
      I2C_TransferConfig(hi2c, DevAddress, (uint8_t)hi2c->XferSize, I2C_RELOAD_MODE,
 8001626:	3b7f      	subs	r3, #127	@ 0x7f
 8001628:	4a3f      	ldr	r2, [pc, #252]	@ (8001728 <HAL_I2C_Master_Receive+0x16c>)
 800162a:	9200      	str	r2, [sp, #0]
 800162c:	045b      	lsls	r3, r3, #17
 800162e:	22ff      	movs	r2, #255	@ 0xff
 8001630:	0039      	movs	r1, r7
 8001632:	0020      	movs	r0, r4
 8001634:	f7ff fd18 	bl	8001068 <I2C_TransferConfig>
 8001638:	e018      	b.n	800166c <HAL_I2C_Master_Receive+0xb0>
      hi2c->XferSize = hi2c->XferCount;
 800163a:	8d62      	ldrh	r2, [r4, #42]	@ 0x2a
 800163c:	b292      	uxth	r2, r2
 800163e:	8522      	strh	r2, [r4, #40]	@ 0x28
      I2C_TransferConfig(hi2c, DevAddress, (uint8_t)hi2c->XferSize, I2C_AUTOEND_MODE,
 8001640:	2380      	movs	r3, #128	@ 0x80
 8001642:	b2d2      	uxtb	r2, r2
 8001644:	4938      	ldr	r1, [pc, #224]	@ (8001728 <HAL_I2C_Master_Receive+0x16c>)
 8001646:	9100      	str	r1, [sp, #0]
 8001648:	049b      	lsls	r3, r3, #18
 800164a:	0039      	movs	r1, r7
 800164c:	0020      	movs	r0, r4
 800164e:	f7ff fd0b 	bl	8001068 <I2C_TransferConfig>
 8001652:	e00b      	b.n	800166c <HAL_I2C_Master_Receive+0xb0>
          hi2c->XferSize = hi2c->XferCount;
 8001654:	8d62      	ldrh	r2, [r4, #42]	@ 0x2a
 8001656:	b292      	uxth	r2, r2
 8001658:	8522      	strh	r2, [r4, #40]	@ 0x28
          I2C_TransferConfig(hi2c, DevAddress, (uint8_t)hi2c->XferSize, I2C_AUTOEND_MODE,
 800165a:	2380      	movs	r3, #128	@ 0x80
 800165c:	b2d2      	uxtb	r2, r2
 800165e:	2100      	movs	r1, #0
 8001660:	9100      	str	r1, [sp, #0]
 8001662:	049b      	lsls	r3, r3, #18
 8001664:	0039      	movs	r1, r7
 8001666:	0020      	movs	r0, r4
 8001668:	f7ff fcfe 	bl	8001068 <I2C_TransferConfig>
    while (hi2c->XferCount > 0U)
 800166c:	8d63      	ldrh	r3, [r4, #42]	@ 0x2a
 800166e:	b29b      	uxth	r3, r3
 8001670:	2b00      	cmp	r3, #0
 8001672:	d034      	beq.n	80016de <HAL_I2C_Master_Receive+0x122>
      if (I2C_WaitOnRXNEFlagUntilTimeout(hi2c, Timeout, tickstart) != HAL_OK)
 8001674:	0032      	movs	r2, r6
 8001676:	0029      	movs	r1, r5
 8001678:	0020      	movs	r0, r4
 800167a:	f7ff fe2d 	bl	80012d8 <I2C_WaitOnRXNEFlagUntilTimeout>
 800167e:	2800      	cmp	r0, #0
 8001680:	d14b      	bne.n	800171a <HAL_I2C_Master_Receive+0x15e>
      *hi2c->pBuffPtr = (uint8_t)hi2c->Instance->RXDR;
 8001682:	6823      	ldr	r3, [r4, #0]
 8001684:	6a5a      	ldr	r2, [r3, #36]	@ 0x24
 8001686:	6a63      	ldr	r3, [r4, #36]	@ 0x24
 8001688:	701a      	strb	r2, [r3, #0]
      hi2c->pBuffPtr++;
 800168a:	6a63      	ldr	r3, [r4, #36]	@ 0x24
 800168c:	3301      	adds	r3, #1
 800168e:	6263      	str	r3, [r4, #36]	@ 0x24
      hi2c->XferSize--;
 8001690:	8d23      	ldrh	r3, [r4, #40]	@ 0x28
 8001692:	3b01      	subs	r3, #1
 8001694:	b29b      	uxth	r3, r3
 8001696:	8523      	strh	r3, [r4, #40]	@ 0x28
      hi2c->XferCount--;
 8001698:	8d62      	ldrh	r2, [r4, #42]	@ 0x2a
 800169a:	3a01      	subs	r2, #1
 800169c:	b292      	uxth	r2, r2
 800169e:	8562      	strh	r2, [r4, #42]	@ 0x2a
      if ((hi2c->XferCount != 0U) && (hi2c->XferSize == 0U))
 80016a0:	8d62      	ldrh	r2, [r4, #42]	@ 0x2a
 80016a2:	b292      	uxth	r2, r2
 80016a4:	2a00      	cmp	r2, #0
 80016a6:	d0e1      	beq.n	800166c <HAL_I2C_Master_Receive+0xb0>
 80016a8:	2b00      	cmp	r3, #0
 80016aa:	d1df      	bne.n	800166c <HAL_I2C_Master_Receive+0xb0>
        if (I2C_WaitOnFlagUntilTimeout(hi2c, I2C_FLAG_TCR, RESET, Timeout, tickstart) != HAL_OK)
 80016ac:	9600      	str	r6, [sp, #0]
 80016ae:	002b      	movs	r3, r5
 80016b0:	2200      	movs	r2, #0
 80016b2:	2180      	movs	r1, #128	@ 0x80
 80016b4:	0020      	movs	r0, r4
 80016b6:	f7ff fdaa 	bl	800120e <I2C_WaitOnFlagUntilTimeout>
 80016ba:	2800      	cmp	r0, #0
 80016bc:	d12f      	bne.n	800171e <HAL_I2C_Master_Receive+0x162>
        if (hi2c->XferCount > MAX_NBYTE_SIZE)
 80016be:	8d63      	ldrh	r3, [r4, #42]	@ 0x2a
 80016c0:	b29b      	uxth	r3, r3
 80016c2:	2bff      	cmp	r3, #255	@ 0xff
 80016c4:	d9c6      	bls.n	8001654 <HAL_I2C_Master_Receive+0x98>
          hi2c->XferSize = MAX_NBYTE_SIZE;
 80016c6:	23ff      	movs	r3, #255	@ 0xff
 80016c8:	8523      	strh	r3, [r4, #40]	@ 0x28
          I2C_TransferConfig(hi2c, DevAddress, (uint8_t)hi2c->XferSize, I2C_RELOAD_MODE,
 80016ca:	3b7f      	subs	r3, #127	@ 0x7f
 80016cc:	2200      	movs	r2, #0
 80016ce:	9200      	str	r2, [sp, #0]
 80016d0:	045b      	lsls	r3, r3, #17
 80016d2:	32ff      	adds	r2, #255	@ 0xff
 80016d4:	0039      	movs	r1, r7
 80016d6:	0020      	movs	r0, r4
 80016d8:	f7ff fcc6 	bl	8001068 <I2C_TransferConfig>
 80016dc:	e7c6      	b.n	800166c <HAL_I2C_Master_Receive+0xb0>
    if (I2C_WaitOnSTOPFlagUntilTimeout(hi2c, Timeout, tickstart) != HAL_OK)
 80016de:	0032      	movs	r2, r6
 80016e0:	0029      	movs	r1, r5
 80016e2:	0020      	movs	r0, r4
 80016e4:	f7ff fdcb 	bl	800127e <I2C_WaitOnSTOPFlagUntilTimeout>
 80016e8:	2800      	cmp	r0, #0
 80016ea:	d11a      	bne.n	8001722 <HAL_I2C_Master_Receive+0x166>
    __HAL_I2C_CLEAR_FLAG(hi2c, I2C_FLAG_STOPF);
 80016ec:	6823      	ldr	r3, [r4, #0]
 80016ee:	2220      	movs	r2, #32
 80016f0:	61da      	str	r2, [r3, #28]
    I2C_RESET_CR2(hi2c);
 80016f2:	6821      	ldr	r1, [r4, #0]
 80016f4:	684b      	ldr	r3, [r1, #4]
 80016f6:	4d0d      	ldr	r5, [pc, #52]	@ (800172c <HAL_I2C_Master_Receive+0x170>)
 80016f8:	402b      	ands	r3, r5
 80016fa:	604b      	str	r3, [r1, #4]
    hi2c->State = HAL_I2C_STATE_READY;
 80016fc:	2341      	movs	r3, #65	@ 0x41
 80016fe:	54e2      	strb	r2, [r4, r3]
    hi2c->Mode  = HAL_I2C_MODE_NONE;
 8001700:	2300      	movs	r3, #0
 8001702:	3222      	adds	r2, #34	@ 0x22
 8001704:	54a3      	strb	r3, [r4, r2]
    __HAL_UNLOCK(hi2c);
 8001706:	3a02      	subs	r2, #2
 8001708:	54a3      	strb	r3, [r4, r2]
    return HAL_OK;
 800170a:	e000      	b.n	800170e <HAL_I2C_Master_Receive+0x152>
    return HAL_BUSY;
 800170c:	2002      	movs	r0, #2
}
 800170e:	b005      	add	sp, #20
 8001710:	bdf0      	pop	{r4, r5, r6, r7, pc}
    __HAL_LOCK(hi2c);
 8001712:	2002      	movs	r0, #2
 8001714:	e7fb      	b.n	800170e <HAL_I2C_Master_Receive+0x152>
      return HAL_ERROR;
 8001716:	2001      	movs	r0, #1
 8001718:	e7f9      	b.n	800170e <HAL_I2C_Master_Receive+0x152>
        return HAL_ERROR;
 800171a:	2001      	movs	r0, #1
 800171c:	e7f7      	b.n	800170e <HAL_I2C_Master_Receive+0x152>
          return HAL_ERROR;
 800171e:	2001      	movs	r0, #1
 8001720:	e7f5      	b.n	800170e <HAL_I2C_Master_Receive+0x152>
      return HAL_ERROR;
 8001722:	2001      	movs	r0, #1
 8001724:	e7f3      	b.n	800170e <HAL_I2C_Master_Receive+0x152>
 8001726:	46c0      	nop			@ (mov r8, r8)
 8001728:	80002400 	.word	0x80002400
 800172c:	fe00e800 	.word	0xfe00e800

08001730 <HAL_I2CEx_ConfigAnalogFilter>:
  *                the configuration information for the specified I2Cx peripheral.
  * @param  AnalogFilter New state of the Analog filter.
  * @retval HAL status
  */
HAL_StatusTypeDef HAL_I2CEx_ConfigAnalogFilter(I2C_HandleTypeDef *hi2c, uint32_t AnalogFilter)
{
 8001730:	b5f0      	push	{r4, r5, r6, r7, lr}
  /* Check the parameters */
  assert_param(IS_I2C_ALL_INSTANCE(hi2c->Instance));
  assert_param(IS_I2C_ANALOG_FILTER(AnalogFilter));

  if (hi2c->State == HAL_I2C_STATE_READY)
 8001732:	2341      	movs	r3, #65	@ 0x41
 8001734:	5cc3      	ldrb	r3, [r0, r3]
 8001736:	2b20      	cmp	r3, #32
 8001738:	d120      	bne.n	800177c <HAL_I2CEx_ConfigAnalogFilter+0x4c>
  {
    /* Process Locked */
    __HAL_LOCK(hi2c);
 800173a:	3320      	adds	r3, #32
 800173c:	5cc3      	ldrb	r3, [r0, r3]
 800173e:	2b01      	cmp	r3, #1
 8001740:	d01e      	beq.n	8001780 <HAL_I2CEx_ConfigAnalogFilter+0x50>
 8001742:	2440      	movs	r4, #64	@ 0x40
 8001744:	2201      	movs	r2, #1
 8001746:	5502      	strb	r2, [r0, r4]

    hi2c->State = HAL_I2C_STATE_BUSY;
 8001748:	2541      	movs	r5, #65	@ 0x41
 800174a:	2324      	movs	r3, #36	@ 0x24
 800174c:	5543      	strb	r3, [r0, r5]

    /* Disable the selected I2C peripheral */
    __HAL_I2C_DISABLE(hi2c);
 800174e:	6806      	ldr	r6, [r0, #0]
 8001750:	6833      	ldr	r3, [r6, #0]
 8001752:	4393      	bics	r3, r2
 8001754:	6033      	str	r3, [r6, #0]

    /* Reset I2Cx ANOFF bit */
    hi2c->Instance->CR1 &= ~(I2C_CR1_ANFOFF);
 8001756:	6806      	ldr	r6, [r0, #0]
 8001758:	6833      	ldr	r3, [r6, #0]
 800175a:	4f0a      	ldr	r7, [pc, #40]	@ (8001784 <HAL_I2CEx_ConfigAnalogFilter+0x54>)
 800175c:	403b      	ands	r3, r7
 800175e:	6033      	str	r3, [r6, #0]

    /* Set analog filter bit*/
    hi2c->Instance->CR1 |= AnalogFilter;
 8001760:	6806      	ldr	r6, [r0, #0]
 8001762:	6833      	ldr	r3, [r6, #0]
 8001764:	430b      	orrs	r3, r1
 8001766:	6033      	str	r3, [r6, #0]

    __HAL_I2C_ENABLE(hi2c);
 8001768:	6801      	ldr	r1, [r0, #0]
 800176a:	680b      	ldr	r3, [r1, #0]
 800176c:	4313      	orrs	r3, r2
 800176e:	600b      	str	r3, [r1, #0]

    hi2c->State = HAL_I2C_STATE_READY;
 8001770:	2320      	movs	r3, #32
 8001772:	5543      	strb	r3, [r0, r5]

    /* Process Unlocked */
    __HAL_UNLOCK(hi2c);
 8001774:	2300      	movs	r3, #0
 8001776:	5503      	strb	r3, [r0, r4]

    return HAL_OK;
 8001778:	2000      	movs	r0, #0
  }
  else
  {
    return HAL_BUSY;
  }
}
 800177a:	bdf0      	pop	{r4, r5, r6, r7, pc}
    return HAL_BUSY;
 800177c:	2002      	movs	r0, #2
 800177e:	e7fc      	b.n	800177a <HAL_I2CEx_ConfigAnalogFilter+0x4a>
    __HAL_LOCK(hi2c);
 8001780:	2002      	movs	r0, #2
 8001782:	e7fa      	b.n	800177a <HAL_I2CEx_ConfigAnalogFilter+0x4a>
 8001784:	ffffefff 	.word	0xffffefff

08001788 <HAL_I2CEx_ConfigDigitalFilter>:
  *                the configuration information for the specified I2Cx peripheral.
  * @param  DigitalFilter Coefficient of digital noise filter between Min_Data=0x00 and Max_Data=0x0F.
  * @retval HAL status
  */
HAL_StatusTypeDef HAL_I2CEx_ConfigDigitalFilter(I2C_HandleTypeDef *hi2c, uint32_t DigitalFilter)
{
 8001788:	b5f0      	push	{r4, r5, r6, r7, lr}

  /* Check the parameters */
  assert_param(IS_I2C_ALL_INSTANCE(hi2c->Instance));
  assert_param(IS_I2C_DIGITAL_FILTER(DigitalFilter));

  if (hi2c->State == HAL_I2C_STATE_READY)
 800178a:	2341      	movs	r3, #65	@ 0x41
 800178c:	5cc3      	ldrb	r3, [r0, r3]
 800178e:	2b20      	cmp	r3, #32
 8001790:	d11e      	bne.n	80017d0 <HAL_I2CEx_ConfigDigitalFilter+0x48>
  {
    /* Process Locked */
    __HAL_LOCK(hi2c);
 8001792:	3320      	adds	r3, #32
 8001794:	5cc3      	ldrb	r3, [r0, r3]
 8001796:	2b01      	cmp	r3, #1
 8001798:	d01c      	beq.n	80017d4 <HAL_I2CEx_ConfigDigitalFilter+0x4c>
 800179a:	2440      	movs	r4, #64	@ 0x40
 800179c:	2201      	movs	r2, #1
 800179e:	5502      	strb	r2, [r0, r4]

    hi2c->State = HAL_I2C_STATE_BUSY;
 80017a0:	2541      	movs	r5, #65	@ 0x41
 80017a2:	2324      	movs	r3, #36	@ 0x24
 80017a4:	5543      	strb	r3, [r0, r5]

    /* Disable the selected I2C peripheral */
    __HAL_I2C_DISABLE(hi2c);
 80017a6:	6806      	ldr	r6, [r0, #0]
 80017a8:	6833      	ldr	r3, [r6, #0]
 80017aa:	4393      	bics	r3, r2
 80017ac:	6033      	str	r3, [r6, #0]

    /* Get the old register value */
    tmpreg = hi2c->Instance->CR1;
 80017ae:	6806      	ldr	r6, [r0, #0]
 80017b0:	6833      	ldr	r3, [r6, #0]

    /* Reset I2Cx DNF bits [11:8] */
    tmpreg &= ~(I2C_CR1_DNF);
 80017b2:	4f09      	ldr	r7, [pc, #36]	@ (80017d8 <HAL_I2CEx_ConfigDigitalFilter+0x50>)
 80017b4:	403b      	ands	r3, r7

    /* Set I2Cx DNF coefficient */
    tmpreg |= DigitalFilter << 8U;
 80017b6:	0209      	lsls	r1, r1, #8
 80017b8:	4319      	orrs	r1, r3

    /* Store the new register value */
    hi2c->Instance->CR1 = tmpreg;
 80017ba:	6031      	str	r1, [r6, #0]

    __HAL_I2C_ENABLE(hi2c);
 80017bc:	6801      	ldr	r1, [r0, #0]
 80017be:	680b      	ldr	r3, [r1, #0]
 80017c0:	4313      	orrs	r3, r2
 80017c2:	600b      	str	r3, [r1, #0]

    hi2c->State = HAL_I2C_STATE_READY;
 80017c4:	2320      	movs	r3, #32
 80017c6:	5543      	strb	r3, [r0, r5]

    /* Process Unlocked */
    __HAL_UNLOCK(hi2c);
 80017c8:	2300      	movs	r3, #0
 80017ca:	5503      	strb	r3, [r0, r4]

    return HAL_OK;
 80017cc:	2000      	movs	r0, #0
  }
  else
  {
    return HAL_BUSY;
  }
}
 80017ce:	bdf0      	pop	{r4, r5, r6, r7, pc}
    return HAL_BUSY;
 80017d0:	2002      	movs	r0, #2
 80017d2:	e7fc      	b.n	80017ce <HAL_I2CEx_ConfigDigitalFilter+0x46>
    __HAL_LOCK(hi2c);
 80017d4:	2002      	movs	r0, #2
 80017d6:	e7fa      	b.n	80017ce <HAL_I2CEx_ConfigDigitalFilter+0x46>
 80017d8:	fffff0ff 	.word	0xfffff0ff

080017dc <HAL_RCC_GetSysClockFreq>:
  *         right SYSCLK value. Otherwise, any configuration based on this function will be incorrect.
  *
  * @retval SYSCLK frequency
  */
uint32_t HAL_RCC_GetSysClockFreq(void)
{
 80017dc:	b510      	push	{r4, lr}
  uint32_t tmpreg, pllm, plld, pllvco, msiclkrange;    /* no init needed */
  uint32_t sysclockfreq;

  tmpreg = RCC->CFGR;
 80017de:	4b26      	ldr	r3, [pc, #152]	@ (8001878 <HAL_RCC_GetSysClockFreq+0x9c>)
 80017e0:	68da      	ldr	r2, [r3, #12]

  /* Get SYSCLK source -------------------------------------------------------*/
  switch (tmpreg & RCC_CFGR_SWS)
 80017e2:	230c      	movs	r3, #12
 80017e4:	4013      	ands	r3, r2
 80017e6:	2b08      	cmp	r3, #8
 80017e8:	d042      	beq.n	8001870 <HAL_RCC_GetSysClockFreq+0x94>
 80017ea:	2b0c      	cmp	r3, #12
 80017ec:	d011      	beq.n	8001812 <HAL_RCC_GetSysClockFreq+0x36>
 80017ee:	2b04      	cmp	r3, #4
 80017f0:	d009      	beq.n	8001806 <HAL_RCC_GetSysClockFreq+0x2a>
      break;
    }
    case RCC_SYSCLKSOURCE_STATUS_MSI:  /* MSI used as system clock source */
    default: /* MSI used as system clock */
    {
      msiclkrange = (RCC->ICSCR & RCC_ICSCR_MSIRANGE ) >> RCC_ICSCR_MSIRANGE_Pos;
 80017f2:	4b21      	ldr	r3, [pc, #132]	@ (8001878 <HAL_RCC_GetSysClockFreq+0x9c>)
 80017f4:	685a      	ldr	r2, [r3, #4]
 80017f6:	0b52      	lsrs	r2, r2, #13
 80017f8:	2307      	movs	r3, #7
 80017fa:	4013      	ands	r3, r2
      sysclockfreq = (32768U * (1UL << (msiclkrange + 1U)));
 80017fc:	3301      	adds	r3, #1
 80017fe:	2080      	movs	r0, #128	@ 0x80
 8001800:	0200      	lsls	r0, r0, #8
 8001802:	4098      	lsls	r0, r3
      break;
    }
  }
  return sysclockfreq;
}
 8001804:	bd10      	pop	{r4, pc}
      if ((RCC->CR & RCC_CR_HSIDIVF) != 0U)
 8001806:	4b1c      	ldr	r3, [pc, #112]	@ (8001878 <HAL_RCC_GetSysClockFreq+0x9c>)
 8001808:	681b      	ldr	r3, [r3, #0]
 800180a:	06db      	lsls	r3, r3, #27
 800180c:	d532      	bpl.n	8001874 <HAL_RCC_GetSysClockFreq+0x98>
        sysclockfreq =  (HSI_VALUE >> 2);
 800180e:	481b      	ldr	r0, [pc, #108]	@ (800187c <HAL_RCC_GetSysClockFreq+0xa0>)
 8001810:	e7f8      	b.n	8001804 <HAL_RCC_GetSysClockFreq+0x28>
      pllm = PLLMulTable[(uint32_t)(tmpreg & RCC_CFGR_PLLMUL) >> RCC_CFGR_PLLMUL_Pos];
 8001812:	0c91      	lsrs	r1, r2, #18
 8001814:	230f      	movs	r3, #15
 8001816:	400b      	ands	r3, r1
 8001818:	4919      	ldr	r1, [pc, #100]	@ (8001880 <HAL_RCC_GetSysClockFreq+0xa4>)
 800181a:	5cc8      	ldrb	r0, [r1, r3]
      plld = ((uint32_t)(tmpreg & RCC_CFGR_PLLDIV) >> RCC_CFGR_PLLDIV_Pos) + 1U;
 800181c:	0d92      	lsrs	r2, r2, #22
 800181e:	2303      	movs	r3, #3
 8001820:	401a      	ands	r2, r3
 8001822:	1c54      	adds	r4, r2, #1
      if (__HAL_RCC_GET_PLL_OSCSOURCE() != RCC_PLLSOURCE_HSI)
 8001824:	4b14      	ldr	r3, [pc, #80]	@ (8001878 <HAL_RCC_GetSysClockFreq+0x9c>)
 8001826:	68db      	ldr	r3, [r3, #12]
 8001828:	03db      	lsls	r3, r3, #15
 800182a:	d509      	bpl.n	8001840 <HAL_RCC_GetSysClockFreq+0x64>
        pllvco = (uint32_t)(((uint64_t)HSE_VALUE * (uint64_t)pllm) / (uint64_t)plld);
 800182c:	4a15      	ldr	r2, [pc, #84]	@ (8001884 <HAL_RCC_GetSysClockFreq+0xa8>)
 800182e:	2300      	movs	r3, #0
 8001830:	2100      	movs	r1, #0
 8001832:	f7fe fd15 	bl	8000260 <__aeabi_lmul>
 8001836:	0022      	movs	r2, r4
 8001838:	2300      	movs	r3, #0
 800183a:	f7fe fcf1 	bl	8000220 <__aeabi_uldivmod>
 800183e:	e7e1      	b.n	8001804 <HAL_RCC_GetSysClockFreq+0x28>
        if ((RCC->CR & RCC_CR_HSIDIVF) != 0U)
 8001840:	4b0d      	ldr	r3, [pc, #52]	@ (8001878 <HAL_RCC_GetSysClockFreq+0x9c>)
 8001842:	681b      	ldr	r3, [r3, #0]
 8001844:	06db      	lsls	r3, r3, #27
 8001846:	d509      	bpl.n	800185c <HAL_RCC_GetSysClockFreq+0x80>
          pllvco = (uint32_t)((((uint64_t)(HSI_VALUE >> 2)) * (uint64_t)pllm) / (uint64_t)plld);
 8001848:	4a0c      	ldr	r2, [pc, #48]	@ (800187c <HAL_RCC_GetSysClockFreq+0xa0>)
 800184a:	2300      	movs	r3, #0
 800184c:	2100      	movs	r1, #0
 800184e:	f7fe fd07 	bl	8000260 <__aeabi_lmul>
 8001852:	0022      	movs	r2, r4
 8001854:	2300      	movs	r3, #0
 8001856:	f7fe fce3 	bl	8000220 <__aeabi_uldivmod>
 800185a:	e7d3      	b.n	8001804 <HAL_RCC_GetSysClockFreq+0x28>
         pllvco = (uint32_t)(((uint64_t)HSI_VALUE * (uint64_t)pllm) / (uint64_t)plld);
 800185c:	4a0a      	ldr	r2, [pc, #40]	@ (8001888 <HAL_RCC_GetSysClockFreq+0xac>)
 800185e:	2300      	movs	r3, #0
 8001860:	2100      	movs	r1, #0
 8001862:	f7fe fcfd 	bl	8000260 <__aeabi_lmul>
 8001866:	0022      	movs	r2, r4
 8001868:	2300      	movs	r3, #0
 800186a:	f7fe fcd9 	bl	8000220 <__aeabi_uldivmod>
 800186e:	e7c9      	b.n	8001804 <HAL_RCC_GetSysClockFreq+0x28>
  switch (tmpreg & RCC_CFGR_SWS)
 8001870:	4804      	ldr	r0, [pc, #16]	@ (8001884 <HAL_RCC_GetSysClockFreq+0xa8>)
 8001872:	e7c7      	b.n	8001804 <HAL_RCC_GetSysClockFreq+0x28>
        sysclockfreq =  HSI_VALUE;
 8001874:	4804      	ldr	r0, [pc, #16]	@ (8001888 <HAL_RCC_GetSysClockFreq+0xac>)
  return sysclockfreq;
 8001876:	e7c5      	b.n	8001804 <HAL_RCC_GetSysClockFreq+0x28>
 8001878:	40021000 	.word	0x40021000
 800187c:	003d0900 	.word	0x003d0900
 8001880:	080028a0 	.word	0x080028a0
 8001884:	007a1200 	.word	0x007a1200
 8001888:	00f42400 	.word	0x00f42400

0800188c <HAL_RCC_OscConfig>:
{
 800188c:	b5f0      	push	{r4, r5, r6, r7, lr}
 800188e:	b083      	sub	sp, #12
 8001890:	1e04      	subs	r4, r0, #0
  if(RCC_OscInitStruct == NULL)
 8001892:	d100      	bne.n	8001896 <HAL_RCC_OscConfig+0xa>
 8001894:	e265      	b.n	8001d62 <HAL_RCC_OscConfig+0x4d6>
  sysclk_source = __HAL_RCC_GET_SYSCLK_SOURCE();
 8001896:	4bc5      	ldr	r3, [pc, #788]	@ (8001bac <HAL_RCC_OscConfig+0x320>)
 8001898:	68da      	ldr	r2, [r3, #12]
 800189a:	250c      	movs	r5, #12
 800189c:	4015      	ands	r5, r2
  pll_config = __HAL_RCC_GET_PLL_OSCSOURCE();
 800189e:	68de      	ldr	r6, [r3, #12]
 80018a0:	2380      	movs	r3, #128	@ 0x80
 80018a2:	025b      	lsls	r3, r3, #9
 80018a4:	401e      	ands	r6, r3
  if(((RCC_OscInitStruct->OscillatorType) & RCC_OSCILLATORTYPE_HSE) == RCC_OSCILLATORTYPE_HSE)
 80018a6:	6803      	ldr	r3, [r0, #0]
 80018a8:	07db      	lsls	r3, r3, #31
 80018aa:	d536      	bpl.n	800191a <HAL_RCC_OscConfig+0x8e>
    if((sysclk_source == RCC_SYSCLKSOURCE_STATUS_HSE)
 80018ac:	2d08      	cmp	r5, #8
 80018ae:	d02c      	beq.n	800190a <HAL_RCC_OscConfig+0x7e>
       || ((sysclk_source == RCC_SYSCLKSOURCE_STATUS_PLLCLK) && (pll_config == RCC_PLLSOURCE_HSE)))
 80018b0:	2d0c      	cmp	r5, #12
 80018b2:	d028      	beq.n	8001906 <HAL_RCC_OscConfig+0x7a>
      __HAL_RCC_HSE_CONFIG(RCC_OscInitStruct->HSEState);
 80018b4:	6863      	ldr	r3, [r4, #4]
 80018b6:	2280      	movs	r2, #128	@ 0x80
 80018b8:	0252      	lsls	r2, r2, #9
 80018ba:	4293      	cmp	r3, r2
 80018bc:	d055      	beq.n	800196a <HAL_RCC_OscConfig+0xde>
 80018be:	22a0      	movs	r2, #160	@ 0xa0
 80018c0:	02d2      	lsls	r2, r2, #11
 80018c2:	4293      	cmp	r3, r2
 80018c4:	d058      	beq.n	8001978 <HAL_RCC_OscConfig+0xec>
 80018c6:	4bb9      	ldr	r3, [pc, #740]	@ (8001bac <HAL_RCC_OscConfig+0x320>)
 80018c8:	681a      	ldr	r2, [r3, #0]
 80018ca:	49b9      	ldr	r1, [pc, #740]	@ (8001bb0 <HAL_RCC_OscConfig+0x324>)
 80018cc:	400a      	ands	r2, r1
 80018ce:	601a      	str	r2, [r3, #0]
 80018d0:	681a      	ldr	r2, [r3, #0]
 80018d2:	2180      	movs	r1, #128	@ 0x80
 80018d4:	0249      	lsls	r1, r1, #9
 80018d6:	400a      	ands	r2, r1
 80018d8:	9201      	str	r2, [sp, #4]
 80018da:	9a01      	ldr	r2, [sp, #4]
 80018dc:	681a      	ldr	r2, [r3, #0]
 80018de:	49b5      	ldr	r1, [pc, #724]	@ (8001bb4 <HAL_RCC_OscConfig+0x328>)
 80018e0:	400a      	ands	r2, r1
 80018e2:	601a      	str	r2, [r3, #0]
      if(RCC_OscInitStruct->HSEState != RCC_HSE_OFF)
 80018e4:	6863      	ldr	r3, [r4, #4]
 80018e6:	2b00      	cmp	r3, #0
 80018e8:	d052      	beq.n	8001990 <HAL_RCC_OscConfig+0x104>
        tickstart = HAL_GetTick();
 80018ea:	f7ff fa75 	bl	8000dd8 <HAL_GetTick>
 80018ee:	0007      	movs	r7, r0
        while(__HAL_RCC_GET_FLAG(RCC_FLAG_HSERDY) == 0U)
 80018f0:	4bae      	ldr	r3, [pc, #696]	@ (8001bac <HAL_RCC_OscConfig+0x320>)
 80018f2:	681b      	ldr	r3, [r3, #0]
 80018f4:	039b      	lsls	r3, r3, #14
 80018f6:	d410      	bmi.n	800191a <HAL_RCC_OscConfig+0x8e>
          if((HAL_GetTick() - tickstart ) > HSE_TIMEOUT_VALUE)
 80018f8:	f7ff fa6e 	bl	8000dd8 <HAL_GetTick>
 80018fc:	1bc0      	subs	r0, r0, r7
 80018fe:	2864      	cmp	r0, #100	@ 0x64
 8001900:	d9f6      	bls.n	80018f0 <HAL_RCC_OscConfig+0x64>
            return HAL_TIMEOUT;
 8001902:	2003      	movs	r0, #3
 8001904:	e22e      	b.n	8001d64 <HAL_RCC_OscConfig+0x4d8>
       || ((sysclk_source == RCC_SYSCLKSOURCE_STATUS_PLLCLK) && (pll_config == RCC_PLLSOURCE_HSE)))
 8001906:	2e00      	cmp	r6, #0
 8001908:	d0d4      	beq.n	80018b4 <HAL_RCC_OscConfig+0x28>
      if((__HAL_RCC_GET_FLAG(RCC_FLAG_HSERDY) != 0U) && (RCC_OscInitStruct->HSEState == RCC_HSE_OFF))
 800190a:	4ba8      	ldr	r3, [pc, #672]	@ (8001bac <HAL_RCC_OscConfig+0x320>)
 800190c:	681b      	ldr	r3, [r3, #0]
 800190e:	039b      	lsls	r3, r3, #14
 8001910:	d503      	bpl.n	800191a <HAL_RCC_OscConfig+0x8e>
 8001912:	6863      	ldr	r3, [r4, #4]
 8001914:	2b00      	cmp	r3, #0
 8001916:	d100      	bne.n	800191a <HAL_RCC_OscConfig+0x8e>
 8001918:	e226      	b.n	8001d68 <HAL_RCC_OscConfig+0x4dc>
  if(((RCC_OscInitStruct->OscillatorType) & RCC_OSCILLATORTYPE_HSI) == RCC_OSCILLATORTYPE_HSI)
 800191a:	6823      	ldr	r3, [r4, #0]
 800191c:	079b      	lsls	r3, r3, #30
 800191e:	d56d      	bpl.n	80019fc <HAL_RCC_OscConfig+0x170>
    hsi_state = RCC_OscInitStruct->HSIState;
 8001920:	68e3      	ldr	r3, [r4, #12]
    if((hsi_state & RCC_HSI_OUTEN) != 0U)
 8001922:	069a      	lsls	r2, r3, #26
 8001924:	d505      	bpl.n	8001932 <HAL_RCC_OscConfig+0xa6>
      SET_BIT(RCC->CR, RCC_CR_HSIOUTEN);
 8001926:	48a1      	ldr	r0, [pc, #644]	@ (8001bac <HAL_RCC_OscConfig+0x320>)
 8001928:	6802      	ldr	r2, [r0, #0]
 800192a:	2120      	movs	r1, #32
 800192c:	430a      	orrs	r2, r1
 800192e:	6002      	str	r2, [r0, #0]
      hsi_state &= ~RCC_CR_HSIOUTEN;
 8001930:	438b      	bics	r3, r1
    if((sysclk_source == RCC_SYSCLKSOURCE_STATUS_HSI)
 8001932:	2d04      	cmp	r5, #4
 8001934:	d03c      	beq.n	80019b0 <HAL_RCC_OscConfig+0x124>
       || ((sysclk_source == RCC_SYSCLKSOURCE_STATUS_PLLCLK) && (pll_config == RCC_PLLSOURCE_HSI)))
 8001936:	2d0c      	cmp	r5, #12
 8001938:	d038      	beq.n	80019ac <HAL_RCC_OscConfig+0x120>
      if(hsi_state != RCC_HSI_OFF)
 800193a:	2b00      	cmp	r3, #0
 800193c:	d100      	bne.n	8001940 <HAL_RCC_OscConfig+0xb4>
 800193e:	e0b0      	b.n	8001aa2 <HAL_RCC_OscConfig+0x216>
        __HAL_RCC_HSI_CONFIG(hsi_state);
 8001940:	499a      	ldr	r1, [pc, #616]	@ (8001bac <HAL_RCC_OscConfig+0x320>)
 8001942:	680a      	ldr	r2, [r1, #0]
 8001944:	2009      	movs	r0, #9
 8001946:	4382      	bics	r2, r0
 8001948:	4313      	orrs	r3, r2
 800194a:	600b      	str	r3, [r1, #0]
        tickstart = HAL_GetTick();
 800194c:	f7ff fa44 	bl	8000dd8 <HAL_GetTick>
 8001950:	0006      	movs	r6, r0
        while(__HAL_RCC_GET_FLAG(RCC_FLAG_HSIRDY) == 0U)
 8001952:	4b96      	ldr	r3, [pc, #600]	@ (8001bac <HAL_RCC_OscConfig+0x320>)
 8001954:	681b      	ldr	r3, [r3, #0]
 8001956:	075b      	lsls	r3, r3, #29
 8001958:	d500      	bpl.n	800195c <HAL_RCC_OscConfig+0xd0>
 800195a:	e099      	b.n	8001a90 <HAL_RCC_OscConfig+0x204>
          if((HAL_GetTick() - tickstart ) > HSI_TIMEOUT_VALUE)
 800195c:	f7ff fa3c 	bl	8000dd8 <HAL_GetTick>
 8001960:	1b80      	subs	r0, r0, r6
 8001962:	2802      	cmp	r0, #2
 8001964:	d9f5      	bls.n	8001952 <HAL_RCC_OscConfig+0xc6>
            return HAL_TIMEOUT;
 8001966:	2003      	movs	r0, #3
 8001968:	e1fc      	b.n	8001d64 <HAL_RCC_OscConfig+0x4d8>
      __HAL_RCC_HSE_CONFIG(RCC_OscInitStruct->HSEState);
 800196a:	4a90      	ldr	r2, [pc, #576]	@ (8001bac <HAL_RCC_OscConfig+0x320>)
 800196c:	6811      	ldr	r1, [r2, #0]
 800196e:	2380      	movs	r3, #128	@ 0x80
 8001970:	025b      	lsls	r3, r3, #9
 8001972:	430b      	orrs	r3, r1
 8001974:	6013      	str	r3, [r2, #0]
 8001976:	e7b5      	b.n	80018e4 <HAL_RCC_OscConfig+0x58>
 8001978:	4b8c      	ldr	r3, [pc, #560]	@ (8001bac <HAL_RCC_OscConfig+0x320>)
 800197a:	6819      	ldr	r1, [r3, #0]
 800197c:	2280      	movs	r2, #128	@ 0x80
 800197e:	02d2      	lsls	r2, r2, #11
 8001980:	430a      	orrs	r2, r1
 8001982:	601a      	str	r2, [r3, #0]
 8001984:	6819      	ldr	r1, [r3, #0]
 8001986:	2280      	movs	r2, #128	@ 0x80
 8001988:	0252      	lsls	r2, r2, #9
 800198a:	430a      	orrs	r2, r1
 800198c:	601a      	str	r2, [r3, #0]
 800198e:	e7a9      	b.n	80018e4 <HAL_RCC_OscConfig+0x58>
        tickstart = HAL_GetTick();
 8001990:	f7ff fa22 	bl	8000dd8 <HAL_GetTick>
 8001994:	0007      	movs	r7, r0
        while(__HAL_RCC_GET_FLAG(RCC_FLAG_HSERDY) != 0U)
 8001996:	4b85      	ldr	r3, [pc, #532]	@ (8001bac <HAL_RCC_OscConfig+0x320>)
 8001998:	681b      	ldr	r3, [r3, #0]
 800199a:	039b      	lsls	r3, r3, #14
 800199c:	d5bd      	bpl.n	800191a <HAL_RCC_OscConfig+0x8e>
           if((HAL_GetTick() - tickstart ) > HSE_TIMEOUT_VALUE)
 800199e:	f7ff fa1b 	bl	8000dd8 <HAL_GetTick>
 80019a2:	1bc0      	subs	r0, r0, r7
 80019a4:	2864      	cmp	r0, #100	@ 0x64
 80019a6:	d9f6      	bls.n	8001996 <HAL_RCC_OscConfig+0x10a>
            return HAL_TIMEOUT;
 80019a8:	2003      	movs	r0, #3
 80019aa:	e1db      	b.n	8001d64 <HAL_RCC_OscConfig+0x4d8>
       || ((sysclk_source == RCC_SYSCLKSOURCE_STATUS_PLLCLK) && (pll_config == RCC_PLLSOURCE_HSI)))
 80019ac:	2e00      	cmp	r6, #0
 80019ae:	d1c4      	bne.n	800193a <HAL_RCC_OscConfig+0xae>
      if((__HAL_RCC_GET_FLAG(RCC_FLAG_HSIRDY) != 0U) && (hsi_state == RCC_HSI_OFF))
 80019b0:	4a7e      	ldr	r2, [pc, #504]	@ (8001bac <HAL_RCC_OscConfig+0x320>)
 80019b2:	6812      	ldr	r2, [r2, #0]
 80019b4:	0752      	lsls	r2, r2, #29
 80019b6:	d502      	bpl.n	80019be <HAL_RCC_OscConfig+0x132>
 80019b8:	2b00      	cmp	r3, #0
 80019ba:	d100      	bne.n	80019be <HAL_RCC_OscConfig+0x132>
 80019bc:	e1d6      	b.n	8001d6c <HAL_RCC_OscConfig+0x4e0>
        __HAL_RCC_HSI_CALIBRATIONVALUE_ADJUST(RCC_OscInitStruct->HSICalibrationValue);
 80019be:	4e7b      	ldr	r6, [pc, #492]	@ (8001bac <HAL_RCC_OscConfig+0x320>)
 80019c0:	6872      	ldr	r2, [r6, #4]
 80019c2:	497d      	ldr	r1, [pc, #500]	@ (8001bb8 <HAL_RCC_OscConfig+0x32c>)
 80019c4:	400a      	ands	r2, r1
 80019c6:	6921      	ldr	r1, [r4, #16]
 80019c8:	0209      	lsls	r1, r1, #8
 80019ca:	430a      	orrs	r2, r1
 80019cc:	6072      	str	r2, [r6, #4]
        __HAL_RCC_HSI_CONFIG(hsi_state);
 80019ce:	6832      	ldr	r2, [r6, #0]
 80019d0:	2109      	movs	r1, #9
 80019d2:	438a      	bics	r2, r1
 80019d4:	4313      	orrs	r3, r2
 80019d6:	6033      	str	r3, [r6, #0]
      SystemCoreClock = HAL_RCC_GetSysClockFreq() >> AHBPrescTable[(RCC->CFGR & RCC_CFGR_HPRE)>> RCC_CFGR_HPRE_Pos];
 80019d8:	f7ff ff00 	bl	80017dc <HAL_RCC_GetSysClockFreq>
 80019dc:	68f2      	ldr	r2, [r6, #12]
 80019de:	0912      	lsrs	r2, r2, #4
 80019e0:	230f      	movs	r3, #15
 80019e2:	4013      	ands	r3, r2
 80019e4:	4a75      	ldr	r2, [pc, #468]	@ (8001bbc <HAL_RCC_OscConfig+0x330>)
 80019e6:	5cd3      	ldrb	r3, [r2, r3]
 80019e8:	40d8      	lsrs	r0, r3
 80019ea:	4b75      	ldr	r3, [pc, #468]	@ (8001bc0 <HAL_RCC_OscConfig+0x334>)
 80019ec:	6018      	str	r0, [r3, #0]
      status = HAL_InitTick (uwTickPrio);
 80019ee:	4b75      	ldr	r3, [pc, #468]	@ (8001bc4 <HAL_RCC_OscConfig+0x338>)
 80019f0:	6818      	ldr	r0, [r3, #0]
 80019f2:	f7ff f9a9 	bl	8000d48 <HAL_InitTick>
      if(status != HAL_OK)
 80019f6:	2800      	cmp	r0, #0
 80019f8:	d000      	beq.n	80019fc <HAL_RCC_OscConfig+0x170>
 80019fa:	e1b3      	b.n	8001d64 <HAL_RCC_OscConfig+0x4d8>
  if(((RCC_OscInitStruct->OscillatorType) & RCC_OSCILLATORTYPE_MSI) == RCC_OSCILLATORTYPE_MSI)
 80019fc:	6823      	ldr	r3, [r4, #0]
 80019fe:	06db      	lsls	r3, r3, #27
 8001a00:	d52d      	bpl.n	8001a5e <HAL_RCC_OscConfig+0x1d2>
    if(sysclk_source == RCC_CFGR_SWS_MSI)
 8001a02:	2d00      	cmp	r5, #0
 8001a04:	d160      	bne.n	8001ac8 <HAL_RCC_OscConfig+0x23c>
      if((__HAL_RCC_GET_FLAG(RCC_FLAG_MSIRDY) != 0U) && (RCC_OscInitStruct->MSIState == RCC_MSI_OFF))
 8001a06:	4b69      	ldr	r3, [pc, #420]	@ (8001bac <HAL_RCC_OscConfig+0x320>)
 8001a08:	681b      	ldr	r3, [r3, #0]
 8001a0a:	059b      	lsls	r3, r3, #22
 8001a0c:	d503      	bpl.n	8001a16 <HAL_RCC_OscConfig+0x18a>
 8001a0e:	69a3      	ldr	r3, [r4, #24]
 8001a10:	2b00      	cmp	r3, #0
 8001a12:	d100      	bne.n	8001a16 <HAL_RCC_OscConfig+0x18a>
 8001a14:	e1ac      	b.n	8001d70 <HAL_RCC_OscConfig+0x4e4>
        __HAL_RCC_MSI_RANGE_CONFIG(RCC_OscInitStruct->MSIClockRange);
 8001a16:	4a65      	ldr	r2, [pc, #404]	@ (8001bac <HAL_RCC_OscConfig+0x320>)
 8001a18:	6853      	ldr	r3, [r2, #4]
 8001a1a:	496b      	ldr	r1, [pc, #428]	@ (8001bc8 <HAL_RCC_OscConfig+0x33c>)
 8001a1c:	400b      	ands	r3, r1
 8001a1e:	6a21      	ldr	r1, [r4, #32]
 8001a20:	430b      	orrs	r3, r1
 8001a22:	6053      	str	r3, [r2, #4]
        __HAL_RCC_MSI_CALIBRATIONVALUE_ADJUST(RCC_OscInitStruct->MSICalibrationValue);
 8001a24:	6853      	ldr	r3, [r2, #4]
 8001a26:	021b      	lsls	r3, r3, #8
 8001a28:	0a1b      	lsrs	r3, r3, #8
 8001a2a:	69e1      	ldr	r1, [r4, #28]
 8001a2c:	0609      	lsls	r1, r1, #24
 8001a2e:	430b      	orrs	r3, r1
 8001a30:	6053      	str	r3, [r2, #4]
        SystemCoreClock =  (32768U * (1UL << ((RCC_OscInitStruct->MSIClockRange >> RCC_ICSCR_MSIRANGE_Pos) + 1U)))
 8001a32:	6a21      	ldr	r1, [r4, #32]
 8001a34:	0b49      	lsrs	r1, r1, #13
 8001a36:	3101      	adds	r1, #1
 8001a38:	2380      	movs	r3, #128	@ 0x80
 8001a3a:	021b      	lsls	r3, r3, #8
 8001a3c:	408b      	lsls	r3, r1
                           >> AHBPrescTable[((RCC->CFGR & RCC_CFGR_HPRE) >> RCC_CFGR_HPRE_Pos)];
 8001a3e:	68d1      	ldr	r1, [r2, #12]
 8001a40:	0909      	lsrs	r1, r1, #4
 8001a42:	220f      	movs	r2, #15
 8001a44:	400a      	ands	r2, r1
 8001a46:	495d      	ldr	r1, [pc, #372]	@ (8001bbc <HAL_RCC_OscConfig+0x330>)
 8001a48:	5c8a      	ldrb	r2, [r1, r2]
 8001a4a:	40d3      	lsrs	r3, r2
        SystemCoreClock =  (32768U * (1UL << ((RCC_OscInitStruct->MSIClockRange >> RCC_ICSCR_MSIRANGE_Pos) + 1U)))
 8001a4c:	4a5c      	ldr	r2, [pc, #368]	@ (8001bc0 <HAL_RCC_OscConfig+0x334>)
 8001a4e:	6013      	str	r3, [r2, #0]
        status = HAL_InitTick (uwTickPrio);
 8001a50:	4b5c      	ldr	r3, [pc, #368]	@ (8001bc4 <HAL_RCC_OscConfig+0x338>)
 8001a52:	6818      	ldr	r0, [r3, #0]
 8001a54:	f7ff f978 	bl	8000d48 <HAL_InitTick>
        if(status != HAL_OK)
 8001a58:	2800      	cmp	r0, #0
 8001a5a:	d000      	beq.n	8001a5e <HAL_RCC_OscConfig+0x1d2>
 8001a5c:	e182      	b.n	8001d64 <HAL_RCC_OscConfig+0x4d8>
  if(((RCC_OscInitStruct->OscillatorType) & RCC_OSCILLATORTYPE_LSI) == RCC_OSCILLATORTYPE_LSI)
 8001a5e:	6823      	ldr	r3, [r4, #0]
 8001a60:	071b      	lsls	r3, r3, #28
 8001a62:	d57d      	bpl.n	8001b60 <HAL_RCC_OscConfig+0x2d4>
    if(RCC_OscInitStruct->LSIState != RCC_LSI_OFF)
 8001a64:	6963      	ldr	r3, [r4, #20]
 8001a66:	2b00      	cmp	r3, #0
 8001a68:	d067      	beq.n	8001b3a <HAL_RCC_OscConfig+0x2ae>
      __HAL_RCC_LSI_ENABLE();
 8001a6a:	4a50      	ldr	r2, [pc, #320]	@ (8001bac <HAL_RCC_OscConfig+0x320>)
 8001a6c:	6d13      	ldr	r3, [r2, #80]	@ 0x50
 8001a6e:	2101      	movs	r1, #1
 8001a70:	430b      	orrs	r3, r1
 8001a72:	6513      	str	r3, [r2, #80]	@ 0x50
      tickstart = HAL_GetTick();
 8001a74:	f7ff f9b0 	bl	8000dd8 <HAL_GetTick>
 8001a78:	0006      	movs	r6, r0
      while(__HAL_RCC_GET_FLAG(RCC_FLAG_LSIRDY) == 0U)
 8001a7a:	4b4c      	ldr	r3, [pc, #304]	@ (8001bac <HAL_RCC_OscConfig+0x320>)
 8001a7c:	6d1b      	ldr	r3, [r3, #80]	@ 0x50
 8001a7e:	079b      	lsls	r3, r3, #30
 8001a80:	d46e      	bmi.n	8001b60 <HAL_RCC_OscConfig+0x2d4>
        if((HAL_GetTick() - tickstart ) > LSI_TIMEOUT_VALUE)
 8001a82:	f7ff f9a9 	bl	8000dd8 <HAL_GetTick>
 8001a86:	1b80      	subs	r0, r0, r6
 8001a88:	2802      	cmp	r0, #2
 8001a8a:	d9f6      	bls.n	8001a7a <HAL_RCC_OscConfig+0x1ee>
          return HAL_TIMEOUT;
 8001a8c:	2003      	movs	r0, #3
 8001a8e:	e169      	b.n	8001d64 <HAL_RCC_OscConfig+0x4d8>
        __HAL_RCC_HSI_CALIBRATIONVALUE_ADJUST(RCC_OscInitStruct->HSICalibrationValue);
 8001a90:	4946      	ldr	r1, [pc, #280]	@ (8001bac <HAL_RCC_OscConfig+0x320>)
 8001a92:	684b      	ldr	r3, [r1, #4]
 8001a94:	4a48      	ldr	r2, [pc, #288]	@ (8001bb8 <HAL_RCC_OscConfig+0x32c>)
 8001a96:	4013      	ands	r3, r2
 8001a98:	6922      	ldr	r2, [r4, #16]
 8001a9a:	0212      	lsls	r2, r2, #8
 8001a9c:	4313      	orrs	r3, r2
 8001a9e:	604b      	str	r3, [r1, #4]
 8001aa0:	e7ac      	b.n	80019fc <HAL_RCC_OscConfig+0x170>
        __HAL_RCC_HSI_DISABLE();
 8001aa2:	4a42      	ldr	r2, [pc, #264]	@ (8001bac <HAL_RCC_OscConfig+0x320>)
 8001aa4:	6813      	ldr	r3, [r2, #0]
 8001aa6:	2101      	movs	r1, #1
 8001aa8:	438b      	bics	r3, r1
 8001aaa:	6013      	str	r3, [r2, #0]
        tickstart = HAL_GetTick();
 8001aac:	f7ff f994 	bl	8000dd8 <HAL_GetTick>
 8001ab0:	0006      	movs	r6, r0
        while(__HAL_RCC_GET_FLAG(RCC_FLAG_HSIRDY) != 0U)
 8001ab2:	4b3e      	ldr	r3, [pc, #248]	@ (8001bac <HAL_RCC_OscConfig+0x320>)
 8001ab4:	681b      	ldr	r3, [r3, #0]
 8001ab6:	075b      	lsls	r3, r3, #29
 8001ab8:	d5a0      	bpl.n	80019fc <HAL_RCC_OscConfig+0x170>
          if((HAL_GetTick() - tickstart ) > HSI_TIMEOUT_VALUE)
 8001aba:	f7ff f98d 	bl	8000dd8 <HAL_GetTick>
 8001abe:	1b80      	subs	r0, r0, r6
 8001ac0:	2802      	cmp	r0, #2
 8001ac2:	d9f6      	bls.n	8001ab2 <HAL_RCC_OscConfig+0x226>
            return HAL_TIMEOUT;
 8001ac4:	2003      	movs	r0, #3
 8001ac6:	e14d      	b.n	8001d64 <HAL_RCC_OscConfig+0x4d8>
      if(RCC_OscInitStruct->MSIState != RCC_MSI_OFF)
 8001ac8:	69a3      	ldr	r3, [r4, #24]
 8001aca:	2b00      	cmp	r3, #0
 8001acc:	d022      	beq.n	8001b14 <HAL_RCC_OscConfig+0x288>
        __HAL_RCC_MSI_ENABLE();
 8001ace:	4a37      	ldr	r2, [pc, #220]	@ (8001bac <HAL_RCC_OscConfig+0x320>)
 8001ad0:	6811      	ldr	r1, [r2, #0]
 8001ad2:	2380      	movs	r3, #128	@ 0x80
 8001ad4:	005b      	lsls	r3, r3, #1
 8001ad6:	430b      	orrs	r3, r1
 8001ad8:	6013      	str	r3, [r2, #0]
        tickstart = HAL_GetTick();
 8001ada:	f7ff f97d 	bl	8000dd8 <HAL_GetTick>
 8001ade:	0006      	movs	r6, r0
        while(__HAL_RCC_GET_FLAG(RCC_FLAG_MSIRDY) == 0U)
 8001ae0:	4b32      	ldr	r3, [pc, #200]	@ (8001bac <HAL_RCC_OscConfig+0x320>)
 8001ae2:	681b      	ldr	r3, [r3, #0]
 8001ae4:	059b      	lsls	r3, r3, #22
 8001ae6:	d406      	bmi.n	8001af6 <HAL_RCC_OscConfig+0x26a>
          if((HAL_GetTick() - tickstart) > MSI_TIMEOUT_VALUE)
 8001ae8:	f7ff f976 	bl	8000dd8 <HAL_GetTick>
 8001aec:	1b80      	subs	r0, r0, r6
 8001aee:	2802      	cmp	r0, #2
 8001af0:	d9f6      	bls.n	8001ae0 <HAL_RCC_OscConfig+0x254>
            return HAL_TIMEOUT;
 8001af2:	2003      	movs	r0, #3
 8001af4:	e136      	b.n	8001d64 <HAL_RCC_OscConfig+0x4d8>
        __HAL_RCC_MSI_RANGE_CONFIG(RCC_OscInitStruct->MSIClockRange);
 8001af6:	4a2d      	ldr	r2, [pc, #180]	@ (8001bac <HAL_RCC_OscConfig+0x320>)
 8001af8:	6853      	ldr	r3, [r2, #4]
 8001afa:	4933      	ldr	r1, [pc, #204]	@ (8001bc8 <HAL_RCC_OscConfig+0x33c>)
 8001afc:	400b      	ands	r3, r1
 8001afe:	6a21      	ldr	r1, [r4, #32]
 8001b00:	430b      	orrs	r3, r1
 8001b02:	6053      	str	r3, [r2, #4]
        __HAL_RCC_MSI_CALIBRATIONVALUE_ADJUST(RCC_OscInitStruct->MSICalibrationValue);
 8001b04:	6853      	ldr	r3, [r2, #4]
 8001b06:	021b      	lsls	r3, r3, #8
 8001b08:	0a1b      	lsrs	r3, r3, #8
 8001b0a:	69e1      	ldr	r1, [r4, #28]
 8001b0c:	0609      	lsls	r1, r1, #24
 8001b0e:	430b      	orrs	r3, r1
 8001b10:	6053      	str	r3, [r2, #4]
 8001b12:	e7a4      	b.n	8001a5e <HAL_RCC_OscConfig+0x1d2>
        __HAL_RCC_MSI_DISABLE();
 8001b14:	4a25      	ldr	r2, [pc, #148]	@ (8001bac <HAL_RCC_OscConfig+0x320>)
 8001b16:	6813      	ldr	r3, [r2, #0]
 8001b18:	492c      	ldr	r1, [pc, #176]	@ (8001bcc <HAL_RCC_OscConfig+0x340>)
 8001b1a:	400b      	ands	r3, r1
 8001b1c:	6013      	str	r3, [r2, #0]
        tickstart = HAL_GetTick();
 8001b1e:	f7ff f95b 	bl	8000dd8 <HAL_GetTick>
 8001b22:	0006      	movs	r6, r0
        while(__HAL_RCC_GET_FLAG(RCC_FLAG_MSIRDY) != 0U)
 8001b24:	4b21      	ldr	r3, [pc, #132]	@ (8001bac <HAL_RCC_OscConfig+0x320>)
 8001b26:	681b      	ldr	r3, [r3, #0]
 8001b28:	059b      	lsls	r3, r3, #22
 8001b2a:	d598      	bpl.n	8001a5e <HAL_RCC_OscConfig+0x1d2>
          if((HAL_GetTick() - tickstart) > MSI_TIMEOUT_VALUE)
 8001b2c:	f7ff f954 	bl	8000dd8 <HAL_GetTick>
 8001b30:	1b80      	subs	r0, r0, r6
 8001b32:	2802      	cmp	r0, #2
 8001b34:	d9f6      	bls.n	8001b24 <HAL_RCC_OscConfig+0x298>
            return HAL_TIMEOUT;
 8001b36:	2003      	movs	r0, #3
 8001b38:	e114      	b.n	8001d64 <HAL_RCC_OscConfig+0x4d8>
      __HAL_RCC_LSI_DISABLE();
 8001b3a:	4a1c      	ldr	r2, [pc, #112]	@ (8001bac <HAL_RCC_OscConfig+0x320>)
 8001b3c:	6d13      	ldr	r3, [r2, #80]	@ 0x50
 8001b3e:	2101      	movs	r1, #1
 8001b40:	438b      	bics	r3, r1
 8001b42:	6513      	str	r3, [r2, #80]	@ 0x50
      tickstart = HAL_GetTick();
 8001b44:	f7ff f948 	bl	8000dd8 <HAL_GetTick>
 8001b48:	0006      	movs	r6, r0
      while(__HAL_RCC_GET_FLAG(RCC_FLAG_LSIRDY) != 0U)
 8001b4a:	4b18      	ldr	r3, [pc, #96]	@ (8001bac <HAL_RCC_OscConfig+0x320>)
 8001b4c:	6d1b      	ldr	r3, [r3, #80]	@ 0x50
 8001b4e:	079b      	lsls	r3, r3, #30
 8001b50:	d506      	bpl.n	8001b60 <HAL_RCC_OscConfig+0x2d4>
        if((HAL_GetTick() - tickstart ) > LSI_TIMEOUT_VALUE)
 8001b52:	f7ff f941 	bl	8000dd8 <HAL_GetTick>
 8001b56:	1b80      	subs	r0, r0, r6
 8001b58:	2802      	cmp	r0, #2
 8001b5a:	d9f6      	bls.n	8001b4a <HAL_RCC_OscConfig+0x2be>
          return HAL_TIMEOUT;
 8001b5c:	2003      	movs	r0, #3
 8001b5e:	e101      	b.n	8001d64 <HAL_RCC_OscConfig+0x4d8>
  if(((RCC_OscInitStruct->OscillatorType) & RCC_OSCILLATORTYPE_LSE) == RCC_OSCILLATORTYPE_LSE)
 8001b60:	6823      	ldr	r3, [r4, #0]
 8001b62:	075b      	lsls	r3, r3, #29
 8001b64:	d400      	bmi.n	8001b68 <HAL_RCC_OscConfig+0x2dc>
 8001b66:	e08e      	b.n	8001c86 <HAL_RCC_OscConfig+0x3fa>
    if(__HAL_RCC_PWR_IS_CLK_DISABLED())
 8001b68:	4b10      	ldr	r3, [pc, #64]	@ (8001bac <HAL_RCC_OscConfig+0x320>)
 8001b6a:	6b9b      	ldr	r3, [r3, #56]	@ 0x38
 8001b6c:	00db      	lsls	r3, r3, #3
 8001b6e:	d41b      	bmi.n	8001ba8 <HAL_RCC_OscConfig+0x31c>
      __HAL_RCC_PWR_CLK_ENABLE();
 8001b70:	4a0e      	ldr	r2, [pc, #56]	@ (8001bac <HAL_RCC_OscConfig+0x320>)
 8001b72:	6b91      	ldr	r1, [r2, #56]	@ 0x38
 8001b74:	2380      	movs	r3, #128	@ 0x80
 8001b76:	055b      	lsls	r3, r3, #21
 8001b78:	430b      	orrs	r3, r1
 8001b7a:	6393      	str	r3, [r2, #56]	@ 0x38
      pwrclkchanged = SET;
 8001b7c:	2601      	movs	r6, #1
    if(HAL_IS_BIT_CLR(PWR->CR, PWR_CR_DBP))
 8001b7e:	4b14      	ldr	r3, [pc, #80]	@ (8001bd0 <HAL_RCC_OscConfig+0x344>)
 8001b80:	681b      	ldr	r3, [r3, #0]
 8001b82:	05db      	lsls	r3, r3, #23
 8001b84:	d528      	bpl.n	8001bd8 <HAL_RCC_OscConfig+0x34c>
    __HAL_RCC_LSE_CONFIG(RCC_OscInitStruct->LSEState);
 8001b86:	68a3      	ldr	r3, [r4, #8]
 8001b88:	2280      	movs	r2, #128	@ 0x80
 8001b8a:	0052      	lsls	r2, r2, #1
 8001b8c:	4293      	cmp	r3, r2
 8001b8e:	d037      	beq.n	8001c00 <HAL_RCC_OscConfig+0x374>
 8001b90:	2b00      	cmp	r3, #0
 8001b92:	d14d      	bne.n	8001c30 <HAL_RCC_OscConfig+0x3a4>
 8001b94:	4b05      	ldr	r3, [pc, #20]	@ (8001bac <HAL_RCC_OscConfig+0x320>)
 8001b96:	6d1a      	ldr	r2, [r3, #80]	@ 0x50
 8001b98:	490c      	ldr	r1, [pc, #48]	@ (8001bcc <HAL_RCC_OscConfig+0x340>)
 8001b9a:	400a      	ands	r2, r1
 8001b9c:	651a      	str	r2, [r3, #80]	@ 0x50
 8001b9e:	6d1a      	ldr	r2, [r3, #80]	@ 0x50
 8001ba0:	490c      	ldr	r1, [pc, #48]	@ (8001bd4 <HAL_RCC_OscConfig+0x348>)
 8001ba2:	400a      	ands	r2, r1
 8001ba4:	651a      	str	r2, [r3, #80]	@ 0x50
 8001ba6:	e031      	b.n	8001c0c <HAL_RCC_OscConfig+0x380>
    FlagStatus       pwrclkchanged = RESET;
 8001ba8:	2600      	movs	r6, #0
 8001baa:	e7e8      	b.n	8001b7e <HAL_RCC_OscConfig+0x2f2>
 8001bac:	40021000 	.word	0x40021000
 8001bb0:	fffeffff 	.word	0xfffeffff
 8001bb4:	fffbffff 	.word	0xfffbffff
 8001bb8:	ffffe0ff 	.word	0xffffe0ff
 8001bbc:	080028b4 	.word	0x080028b4
 8001bc0:	20000014 	.word	0x20000014
 8001bc4:	2000001c 	.word	0x2000001c
 8001bc8:	ffff1fff 	.word	0xffff1fff
 8001bcc:	fffffeff 	.word	0xfffffeff
 8001bd0:	40007000 	.word	0x40007000
 8001bd4:	fffffbff 	.word	0xfffffbff
      SET_BIT(PWR->CR, PWR_CR_DBP);
 8001bd8:	4a6b      	ldr	r2, [pc, #428]	@ (8001d88 <HAL_RCC_OscConfig+0x4fc>)
 8001bda:	6811      	ldr	r1, [r2, #0]
 8001bdc:	2380      	movs	r3, #128	@ 0x80
 8001bde:	005b      	lsls	r3, r3, #1
 8001be0:	430b      	orrs	r3, r1
 8001be2:	6013      	str	r3, [r2, #0]
      tickstart = HAL_GetTick();
 8001be4:	f7ff f8f8 	bl	8000dd8 <HAL_GetTick>
 8001be8:	0007      	movs	r7, r0
      while(HAL_IS_BIT_CLR(PWR->CR, PWR_CR_DBP))
 8001bea:	4b67      	ldr	r3, [pc, #412]	@ (8001d88 <HAL_RCC_OscConfig+0x4fc>)
 8001bec:	681b      	ldr	r3, [r3, #0]
 8001bee:	05db      	lsls	r3, r3, #23
 8001bf0:	d4c9      	bmi.n	8001b86 <HAL_RCC_OscConfig+0x2fa>
        if((HAL_GetTick() - tickstart) > RCC_DBP_TIMEOUT_VALUE)
 8001bf2:	f7ff f8f1 	bl	8000dd8 <HAL_GetTick>
 8001bf6:	1bc0      	subs	r0, r0, r7
 8001bf8:	2864      	cmp	r0, #100	@ 0x64
 8001bfa:	d9f6      	bls.n	8001bea <HAL_RCC_OscConfig+0x35e>
          return HAL_TIMEOUT;
 8001bfc:	2003      	movs	r0, #3
 8001bfe:	e0b1      	b.n	8001d64 <HAL_RCC_OscConfig+0x4d8>
    __HAL_RCC_LSE_CONFIG(RCC_OscInitStruct->LSEState);
 8001c00:	4a62      	ldr	r2, [pc, #392]	@ (8001d8c <HAL_RCC_OscConfig+0x500>)
 8001c02:	6d11      	ldr	r1, [r2, #80]	@ 0x50
 8001c04:	2380      	movs	r3, #128	@ 0x80
 8001c06:	005b      	lsls	r3, r3, #1
 8001c08:	430b      	orrs	r3, r1
 8001c0a:	6513      	str	r3, [r2, #80]	@ 0x50
    if(RCC_OscInitStruct->LSEState != RCC_LSE_OFF)
 8001c0c:	68a3      	ldr	r3, [r4, #8]
 8001c0e:	2b00      	cmp	r3, #0
 8001c10:	d028      	beq.n	8001c64 <HAL_RCC_OscConfig+0x3d8>
      tickstart = HAL_GetTick();
 8001c12:	f7ff f8e1 	bl	8000dd8 <HAL_GetTick>
 8001c16:	0007      	movs	r7, r0
      while(__HAL_RCC_GET_FLAG(RCC_FLAG_LSERDY) == 0U)
 8001c18:	4b5c      	ldr	r3, [pc, #368]	@ (8001d8c <HAL_RCC_OscConfig+0x500>)
 8001c1a:	6d1b      	ldr	r3, [r3, #80]	@ 0x50
 8001c1c:	059b      	lsls	r3, r3, #22
 8001c1e:	d430      	bmi.n	8001c82 <HAL_RCC_OscConfig+0x3f6>
        if((HAL_GetTick() - tickstart ) > RCC_LSE_TIMEOUT_VALUE)
 8001c20:	f7ff f8da 	bl	8000dd8 <HAL_GetTick>
 8001c24:	1bc0      	subs	r0, r0, r7
 8001c26:	4b5a      	ldr	r3, [pc, #360]	@ (8001d90 <HAL_RCC_OscConfig+0x504>)
 8001c28:	4298      	cmp	r0, r3
 8001c2a:	d9f5      	bls.n	8001c18 <HAL_RCC_OscConfig+0x38c>
          return HAL_TIMEOUT;
 8001c2c:	2003      	movs	r0, #3
 8001c2e:	e099      	b.n	8001d64 <HAL_RCC_OscConfig+0x4d8>
    __HAL_RCC_LSE_CONFIG(RCC_OscInitStruct->LSEState);
 8001c30:	22a0      	movs	r2, #160	@ 0xa0
 8001c32:	00d2      	lsls	r2, r2, #3
 8001c34:	4293      	cmp	r3, r2
 8001c36:	d009      	beq.n	8001c4c <HAL_RCC_OscConfig+0x3c0>
 8001c38:	4b54      	ldr	r3, [pc, #336]	@ (8001d8c <HAL_RCC_OscConfig+0x500>)
 8001c3a:	6d1a      	ldr	r2, [r3, #80]	@ 0x50
 8001c3c:	4955      	ldr	r1, [pc, #340]	@ (8001d94 <HAL_RCC_OscConfig+0x508>)
 8001c3e:	400a      	ands	r2, r1
 8001c40:	651a      	str	r2, [r3, #80]	@ 0x50
 8001c42:	6d1a      	ldr	r2, [r3, #80]	@ 0x50
 8001c44:	4954      	ldr	r1, [pc, #336]	@ (8001d98 <HAL_RCC_OscConfig+0x50c>)
 8001c46:	400a      	ands	r2, r1
 8001c48:	651a      	str	r2, [r3, #80]	@ 0x50
 8001c4a:	e7df      	b.n	8001c0c <HAL_RCC_OscConfig+0x380>
 8001c4c:	4b4f      	ldr	r3, [pc, #316]	@ (8001d8c <HAL_RCC_OscConfig+0x500>)
 8001c4e:	6d19      	ldr	r1, [r3, #80]	@ 0x50
 8001c50:	3a01      	subs	r2, #1
 8001c52:	3aff      	subs	r2, #255	@ 0xff
 8001c54:	430a      	orrs	r2, r1
 8001c56:	651a      	str	r2, [r3, #80]	@ 0x50
 8001c58:	6d19      	ldr	r1, [r3, #80]	@ 0x50
 8001c5a:	2280      	movs	r2, #128	@ 0x80
 8001c5c:	0052      	lsls	r2, r2, #1
 8001c5e:	430a      	orrs	r2, r1
 8001c60:	651a      	str	r2, [r3, #80]	@ 0x50
 8001c62:	e7d3      	b.n	8001c0c <HAL_RCC_OscConfig+0x380>
      tickstart = HAL_GetTick();
 8001c64:	f7ff f8b8 	bl	8000dd8 <HAL_GetTick>
 8001c68:	0007      	movs	r7, r0
      while(__HAL_RCC_GET_FLAG(RCC_FLAG_LSERDY) != 0U)
 8001c6a:	4b48      	ldr	r3, [pc, #288]	@ (8001d8c <HAL_RCC_OscConfig+0x500>)
 8001c6c:	6d1b      	ldr	r3, [r3, #80]	@ 0x50
 8001c6e:	059b      	lsls	r3, r3, #22
 8001c70:	d507      	bpl.n	8001c82 <HAL_RCC_OscConfig+0x3f6>
        if((HAL_GetTick() - tickstart ) > RCC_LSE_TIMEOUT_VALUE)
 8001c72:	f7ff f8b1 	bl	8000dd8 <HAL_GetTick>
 8001c76:	1bc0      	subs	r0, r0, r7
 8001c78:	4b45      	ldr	r3, [pc, #276]	@ (8001d90 <HAL_RCC_OscConfig+0x504>)
 8001c7a:	4298      	cmp	r0, r3
 8001c7c:	d9f5      	bls.n	8001c6a <HAL_RCC_OscConfig+0x3de>
          return HAL_TIMEOUT;
 8001c7e:	2003      	movs	r0, #3
 8001c80:	e070      	b.n	8001d64 <HAL_RCC_OscConfig+0x4d8>
    if(pwrclkchanged == SET)
 8001c82:	2e01      	cmp	r6, #1
 8001c84:	d01a      	beq.n	8001cbc <HAL_RCC_OscConfig+0x430>
  if ((RCC_OscInitStruct->PLL.PLLState) != RCC_PLL_NONE)
 8001c86:	6a63      	ldr	r3, [r4, #36]	@ 0x24
 8001c88:	2b00      	cmp	r3, #0
 8001c8a:	d100      	bne.n	8001c8e <HAL_RCC_OscConfig+0x402>
 8001c8c:	e072      	b.n	8001d74 <HAL_RCC_OscConfig+0x4e8>
    if(sysclk_source != RCC_SYSCLKSOURCE_STATUS_PLLCLK)
 8001c8e:	2d0c      	cmp	r5, #12
 8001c90:	d04f      	beq.n	8001d32 <HAL_RCC_OscConfig+0x4a6>
      if((RCC_OscInitStruct->PLL.PLLState) == RCC_PLL_ON)
 8001c92:	2b02      	cmp	r3, #2
 8001c94:	d018      	beq.n	8001cc8 <HAL_RCC_OscConfig+0x43c>
        __HAL_RCC_PLL_DISABLE();
 8001c96:	4a3d      	ldr	r2, [pc, #244]	@ (8001d8c <HAL_RCC_OscConfig+0x500>)
 8001c98:	6813      	ldr	r3, [r2, #0]
 8001c9a:	4940      	ldr	r1, [pc, #256]	@ (8001d9c <HAL_RCC_OscConfig+0x510>)
 8001c9c:	400b      	ands	r3, r1
 8001c9e:	6013      	str	r3, [r2, #0]
        tickstart = HAL_GetTick();
 8001ca0:	f7ff f89a 	bl	8000dd8 <HAL_GetTick>
 8001ca4:	0004      	movs	r4, r0
        while(__HAL_RCC_GET_FLAG(RCC_FLAG_PLLRDY)  != 0U)
 8001ca6:	4b39      	ldr	r3, [pc, #228]	@ (8001d8c <HAL_RCC_OscConfig+0x500>)
 8001ca8:	681b      	ldr	r3, [r3, #0]
 8001caa:	019b      	lsls	r3, r3, #6
 8001cac:	d53f      	bpl.n	8001d2e <HAL_RCC_OscConfig+0x4a2>
          if((HAL_GetTick() - tickstart ) > PLL_TIMEOUT_VALUE)
 8001cae:	f7ff f893 	bl	8000dd8 <HAL_GetTick>
 8001cb2:	1b00      	subs	r0, r0, r4
 8001cb4:	2802      	cmp	r0, #2
 8001cb6:	d9f6      	bls.n	8001ca6 <HAL_RCC_OscConfig+0x41a>
            return HAL_TIMEOUT;
 8001cb8:	2003      	movs	r0, #3
 8001cba:	e053      	b.n	8001d64 <HAL_RCC_OscConfig+0x4d8>
      __HAL_RCC_PWR_CLK_DISABLE();
 8001cbc:	4a33      	ldr	r2, [pc, #204]	@ (8001d8c <HAL_RCC_OscConfig+0x500>)
 8001cbe:	6b93      	ldr	r3, [r2, #56]	@ 0x38
 8001cc0:	4937      	ldr	r1, [pc, #220]	@ (8001da0 <HAL_RCC_OscConfig+0x514>)
 8001cc2:	400b      	ands	r3, r1
 8001cc4:	6393      	str	r3, [r2, #56]	@ 0x38
 8001cc6:	e7de      	b.n	8001c86 <HAL_RCC_OscConfig+0x3fa>
        __HAL_RCC_PLL_DISABLE();
 8001cc8:	4a30      	ldr	r2, [pc, #192]	@ (8001d8c <HAL_RCC_OscConfig+0x500>)
 8001cca:	6813      	ldr	r3, [r2, #0]
 8001ccc:	4933      	ldr	r1, [pc, #204]	@ (8001d9c <HAL_RCC_OscConfig+0x510>)
 8001cce:	400b      	ands	r3, r1
 8001cd0:	6013      	str	r3, [r2, #0]
        tickstart = HAL_GetTick();
 8001cd2:	f7ff f881 	bl	8000dd8 <HAL_GetTick>
 8001cd6:	0005      	movs	r5, r0
        while(__HAL_RCC_GET_FLAG(RCC_FLAG_PLLRDY)  != 0U)
 8001cd8:	4b2c      	ldr	r3, [pc, #176]	@ (8001d8c <HAL_RCC_OscConfig+0x500>)
 8001cda:	681b      	ldr	r3, [r3, #0]
 8001cdc:	019b      	lsls	r3, r3, #6
 8001cde:	d506      	bpl.n	8001cee <HAL_RCC_OscConfig+0x462>
          if((HAL_GetTick() - tickstart ) > PLL_TIMEOUT_VALUE)
 8001ce0:	f7ff f87a 	bl	8000dd8 <HAL_GetTick>
 8001ce4:	1b40      	subs	r0, r0, r5
 8001ce6:	2802      	cmp	r0, #2
 8001ce8:	d9f6      	bls.n	8001cd8 <HAL_RCC_OscConfig+0x44c>
            return HAL_TIMEOUT;
 8001cea:	2003      	movs	r0, #3
 8001cec:	e03a      	b.n	8001d64 <HAL_RCC_OscConfig+0x4d8>
        __HAL_RCC_PLL_CONFIG(RCC_OscInitStruct->PLL.PLLSource,
 8001cee:	4927      	ldr	r1, [pc, #156]	@ (8001d8c <HAL_RCC_OscConfig+0x500>)
 8001cf0:	68cb      	ldr	r3, [r1, #12]
 8001cf2:	4a2c      	ldr	r2, [pc, #176]	@ (8001da4 <HAL_RCC_OscConfig+0x518>)
 8001cf4:	4013      	ands	r3, r2
 8001cf6:	6aa2      	ldr	r2, [r4, #40]	@ 0x28
 8001cf8:	6ae0      	ldr	r0, [r4, #44]	@ 0x2c
 8001cfa:	4302      	orrs	r2, r0
 8001cfc:	6b20      	ldr	r0, [r4, #48]	@ 0x30
 8001cfe:	4302      	orrs	r2, r0
 8001d00:	4313      	orrs	r3, r2
 8001d02:	60cb      	str	r3, [r1, #12]
        __HAL_RCC_PLL_ENABLE();
 8001d04:	680a      	ldr	r2, [r1, #0]
 8001d06:	2380      	movs	r3, #128	@ 0x80
 8001d08:	045b      	lsls	r3, r3, #17
 8001d0a:	4313      	orrs	r3, r2
 8001d0c:	600b      	str	r3, [r1, #0]
        tickstart = HAL_GetTick();
 8001d0e:	f7ff f863 	bl	8000dd8 <HAL_GetTick>
 8001d12:	0004      	movs	r4, r0
        while(__HAL_RCC_GET_FLAG(RCC_FLAG_PLLRDY)  == 0U)
 8001d14:	4b1d      	ldr	r3, [pc, #116]	@ (8001d8c <HAL_RCC_OscConfig+0x500>)
 8001d16:	681b      	ldr	r3, [r3, #0]
 8001d18:	019b      	lsls	r3, r3, #6
 8001d1a:	d406      	bmi.n	8001d2a <HAL_RCC_OscConfig+0x49e>
          if((HAL_GetTick() - tickstart ) > PLL_TIMEOUT_VALUE)
 8001d1c:	f7ff f85c 	bl	8000dd8 <HAL_GetTick>
 8001d20:	1b00      	subs	r0, r0, r4
 8001d22:	2802      	cmp	r0, #2
 8001d24:	d9f6      	bls.n	8001d14 <HAL_RCC_OscConfig+0x488>
            return HAL_TIMEOUT;
 8001d26:	2003      	movs	r0, #3
 8001d28:	e01c      	b.n	8001d64 <HAL_RCC_OscConfig+0x4d8>
  return HAL_OK;
 8001d2a:	2000      	movs	r0, #0
 8001d2c:	e01a      	b.n	8001d64 <HAL_RCC_OscConfig+0x4d8>
 8001d2e:	2000      	movs	r0, #0
 8001d30:	e018      	b.n	8001d64 <HAL_RCC_OscConfig+0x4d8>
      if((RCC_OscInitStruct->PLL.PLLState) == RCC_PLL_OFF)
 8001d32:	2b01      	cmp	r3, #1
 8001d34:	d020      	beq.n	8001d78 <HAL_RCC_OscConfig+0x4ec>
        pll_config = RCC->CFGR;
 8001d36:	4b15      	ldr	r3, [pc, #84]	@ (8001d8c <HAL_RCC_OscConfig+0x500>)
 8001d38:	68da      	ldr	r2, [r3, #12]
        if((READ_BIT(pll_config, RCC_CFGR_PLLSRC) != RCC_OscInitStruct->PLL.PLLSource) ||
 8001d3a:	2380      	movs	r3, #128	@ 0x80
 8001d3c:	025b      	lsls	r3, r3, #9
 8001d3e:	4013      	ands	r3, r2
 8001d40:	6aa1      	ldr	r1, [r4, #40]	@ 0x28
 8001d42:	428b      	cmp	r3, r1
 8001d44:	d11a      	bne.n	8001d7c <HAL_RCC_OscConfig+0x4f0>
           (READ_BIT(pll_config, RCC_CFGR_PLLMUL) != RCC_OscInitStruct->PLL.PLLMUL) ||
 8001d46:	23f0      	movs	r3, #240	@ 0xf0
 8001d48:	039b      	lsls	r3, r3, #14
 8001d4a:	4013      	ands	r3, r2
 8001d4c:	6ae1      	ldr	r1, [r4, #44]	@ 0x2c
        if((READ_BIT(pll_config, RCC_CFGR_PLLSRC) != RCC_OscInitStruct->PLL.PLLSource) ||
 8001d4e:	428b      	cmp	r3, r1
 8001d50:	d116      	bne.n	8001d80 <HAL_RCC_OscConfig+0x4f4>
           (READ_BIT(pll_config, RCC_CFGR_PLLDIV) != RCC_OscInitStruct->PLL.PLLDIV))
 8001d52:	23c0      	movs	r3, #192	@ 0xc0
 8001d54:	041b      	lsls	r3, r3, #16
 8001d56:	401a      	ands	r2, r3
 8001d58:	6b23      	ldr	r3, [r4, #48]	@ 0x30
           (READ_BIT(pll_config, RCC_CFGR_PLLMUL) != RCC_OscInitStruct->PLL.PLLMUL) ||
 8001d5a:	429a      	cmp	r2, r3
 8001d5c:	d112      	bne.n	8001d84 <HAL_RCC_OscConfig+0x4f8>
  return HAL_OK;
 8001d5e:	2000      	movs	r0, #0
 8001d60:	e000      	b.n	8001d64 <HAL_RCC_OscConfig+0x4d8>
    return HAL_ERROR;
 8001d62:	2001      	movs	r0, #1
}
 8001d64:	b003      	add	sp, #12
 8001d66:	bdf0      	pop	{r4, r5, r6, r7, pc}
        return HAL_ERROR;
 8001d68:	2001      	movs	r0, #1
 8001d6a:	e7fb      	b.n	8001d64 <HAL_RCC_OscConfig+0x4d8>
        return HAL_ERROR;
 8001d6c:	2001      	movs	r0, #1
 8001d6e:	e7f9      	b.n	8001d64 <HAL_RCC_OscConfig+0x4d8>
        return HAL_ERROR;
 8001d70:	2001      	movs	r0, #1
 8001d72:	e7f7      	b.n	8001d64 <HAL_RCC_OscConfig+0x4d8>
  return HAL_OK;
 8001d74:	2000      	movs	r0, #0
 8001d76:	e7f5      	b.n	8001d64 <HAL_RCC_OscConfig+0x4d8>
        return HAL_ERROR;
 8001d78:	2001      	movs	r0, #1
 8001d7a:	e7f3      	b.n	8001d64 <HAL_RCC_OscConfig+0x4d8>
          return HAL_ERROR;
 8001d7c:	2001      	movs	r0, #1
 8001d7e:	e7f1      	b.n	8001d64 <HAL_RCC_OscConfig+0x4d8>
 8001d80:	2001      	movs	r0, #1
 8001d82:	e7ef      	b.n	8001d64 <HAL_RCC_OscConfig+0x4d8>
 8001d84:	2001      	movs	r0, #1
 8001d86:	e7ed      	b.n	8001d64 <HAL_RCC_OscConfig+0x4d8>
 8001d88:	40007000 	.word	0x40007000
 8001d8c:	40021000 	.word	0x40021000
 8001d90:	00001388 	.word	0x00001388
 8001d94:	fffffeff 	.word	0xfffffeff
 8001d98:	fffffbff 	.word	0xfffffbff
 8001d9c:	feffffff 	.word	0xfeffffff
 8001da0:	efffffff 	.word	0xefffffff
 8001da4:	ff02ffff 	.word	0xff02ffff

08001da8 <HAL_RCC_ClockConfig>:
{
 8001da8:	b570      	push	{r4, r5, r6, lr}
 8001daa:	0005      	movs	r5, r0
 8001dac:	000c      	movs	r4, r1
  if(RCC_ClkInitStruct == NULL)
 8001dae:	2800      	cmp	r0, #0
 8001db0:	d100      	bne.n	8001db4 <HAL_RCC_ClockConfig+0xc>
 8001db2:	e0d1      	b.n	8001f58 <HAL_RCC_ClockConfig+0x1b0>
  if(FLatency > __HAL_FLASH_GET_LATENCY())
 8001db4:	4b6a      	ldr	r3, [pc, #424]	@ (8001f60 <HAL_RCC_ClockConfig+0x1b8>)
 8001db6:	681a      	ldr	r2, [r3, #0]
 8001db8:	2301      	movs	r3, #1
 8001dba:	4013      	ands	r3, r2
 8001dbc:	428b      	cmp	r3, r1
 8001dbe:	d319      	bcc.n	8001df4 <HAL_RCC_ClockConfig+0x4c>
  if(((RCC_ClkInitStruct->ClockType) & RCC_CLOCKTYPE_HCLK) == RCC_CLOCKTYPE_HCLK)
 8001dc0:	682b      	ldr	r3, [r5, #0]
 8001dc2:	079b      	lsls	r3, r3, #30
 8001dc4:	d506      	bpl.n	8001dd4 <HAL_RCC_ClockConfig+0x2c>
    MODIFY_REG(RCC->CFGR, RCC_CFGR_HPRE, RCC_ClkInitStruct->AHBCLKDivider);
 8001dc6:	4a67      	ldr	r2, [pc, #412]	@ (8001f64 <HAL_RCC_ClockConfig+0x1bc>)
 8001dc8:	68d3      	ldr	r3, [r2, #12]
 8001dca:	21f0      	movs	r1, #240	@ 0xf0
 8001dcc:	438b      	bics	r3, r1
 8001dce:	68a9      	ldr	r1, [r5, #8]
 8001dd0:	430b      	orrs	r3, r1
 8001dd2:	60d3      	str	r3, [r2, #12]
  if(((RCC_ClkInitStruct->ClockType) & RCC_CLOCKTYPE_SYSCLK) == RCC_CLOCKTYPE_SYSCLK)
 8001dd4:	682b      	ldr	r3, [r5, #0]
 8001dd6:	07db      	lsls	r3, r3, #31
 8001dd8:	d57b      	bpl.n	8001ed2 <HAL_RCC_ClockConfig+0x12a>
    if(RCC_ClkInitStruct->SYSCLKSource == RCC_SYSCLKSOURCE_HSE)
 8001dda:	686b      	ldr	r3, [r5, #4]
 8001ddc:	2b02      	cmp	r3, #2
 8001dde:	d020      	beq.n	8001e22 <HAL_RCC_ClockConfig+0x7a>
    else if(RCC_ClkInitStruct->SYSCLKSource == RCC_SYSCLKSOURCE_PLLCLK)
 8001de0:	2b03      	cmp	r3, #3
 8001de2:	d040      	beq.n	8001e66 <HAL_RCC_ClockConfig+0xbe>
    else if(RCC_ClkInitStruct->SYSCLKSource == RCC_SYSCLKSOURCE_HSI)
 8001de4:	2b01      	cmp	r3, #1
 8001de6:	d044      	beq.n	8001e72 <HAL_RCC_ClockConfig+0xca>
      if(__HAL_RCC_GET_FLAG(RCC_FLAG_MSIRDY) == 0U)
 8001de8:	4a5e      	ldr	r2, [pc, #376]	@ (8001f64 <HAL_RCC_ClockConfig+0x1bc>)
 8001dea:	6812      	ldr	r2, [r2, #0]
 8001dec:	0592      	lsls	r2, r2, #22
 8001dee:	d41d      	bmi.n	8001e2c <HAL_RCC_ClockConfig+0x84>
        return HAL_ERROR;
 8001df0:	2001      	movs	r0, #1
 8001df2:	e099      	b.n	8001f28 <HAL_RCC_ClockConfig+0x180>
    __HAL_FLASH_SET_LATENCY(FLatency);
 8001df4:	4a5a      	ldr	r2, [pc, #360]	@ (8001f60 <HAL_RCC_ClockConfig+0x1b8>)
 8001df6:	6813      	ldr	r3, [r2, #0]
 8001df8:	2101      	movs	r1, #1
 8001dfa:	438b      	bics	r3, r1
 8001dfc:	4323      	orrs	r3, r4
 8001dfe:	6013      	str	r3, [r2, #0]
    tickstart = HAL_GetTick();
 8001e00:	f7fe ffea 	bl	8000dd8 <HAL_GetTick>
 8001e04:	0006      	movs	r6, r0
    while (__HAL_FLASH_GET_LATENCY() != FLatency)
 8001e06:	4b56      	ldr	r3, [pc, #344]	@ (8001f60 <HAL_RCC_ClockConfig+0x1b8>)
 8001e08:	681a      	ldr	r2, [r3, #0]
 8001e0a:	2301      	movs	r3, #1
 8001e0c:	4013      	ands	r3, r2
 8001e0e:	42a3      	cmp	r3, r4
 8001e10:	d0d6      	beq.n	8001dc0 <HAL_RCC_ClockConfig+0x18>
      if ((HAL_GetTick() - tickstart) > CLOCKSWITCH_TIMEOUT_VALUE)
 8001e12:	f7fe ffe1 	bl	8000dd8 <HAL_GetTick>
 8001e16:	1b80      	subs	r0, r0, r6
 8001e18:	4a53      	ldr	r2, [pc, #332]	@ (8001f68 <HAL_RCC_ClockConfig+0x1c0>)
 8001e1a:	4290      	cmp	r0, r2
 8001e1c:	d9f3      	bls.n	8001e06 <HAL_RCC_ClockConfig+0x5e>
        return HAL_TIMEOUT;
 8001e1e:	2003      	movs	r0, #3
 8001e20:	e082      	b.n	8001f28 <HAL_RCC_ClockConfig+0x180>
      if(__HAL_RCC_GET_FLAG(RCC_FLAG_HSERDY) == 0U)
 8001e22:	4a50      	ldr	r2, [pc, #320]	@ (8001f64 <HAL_RCC_ClockConfig+0x1bc>)
 8001e24:	6812      	ldr	r2, [r2, #0]
 8001e26:	0392      	lsls	r2, r2, #14
 8001e28:	d400      	bmi.n	8001e2c <HAL_RCC_ClockConfig+0x84>
 8001e2a:	e097      	b.n	8001f5c <HAL_RCC_ClockConfig+0x1b4>
    __HAL_RCC_SYSCLK_CONFIG(RCC_ClkInitStruct->SYSCLKSource);
 8001e2c:	494d      	ldr	r1, [pc, #308]	@ (8001f64 <HAL_RCC_ClockConfig+0x1bc>)
 8001e2e:	68ca      	ldr	r2, [r1, #12]
 8001e30:	2003      	movs	r0, #3
 8001e32:	4382      	bics	r2, r0
 8001e34:	4313      	orrs	r3, r2
 8001e36:	60cb      	str	r3, [r1, #12]
    tickstart = HAL_GetTick();
 8001e38:	f7fe ffce 	bl	8000dd8 <HAL_GetTick>
 8001e3c:	0006      	movs	r6, r0
    if(RCC_ClkInitStruct->SYSCLKSource == RCC_SYSCLKSOURCE_HSE)
 8001e3e:	686b      	ldr	r3, [r5, #4]
 8001e40:	2b02      	cmp	r3, #2
 8001e42:	d01c      	beq.n	8001e7e <HAL_RCC_ClockConfig+0xd6>
    else if(RCC_ClkInitStruct->SYSCLKSource == RCC_SYSCLKSOURCE_PLLCLK)
 8001e44:	2b03      	cmp	r3, #3
 8001e46:	d028      	beq.n	8001e9a <HAL_RCC_ClockConfig+0xf2>
    else if(RCC_ClkInitStruct->SYSCLKSource == RCC_SYSCLKSOURCE_HSI)
 8001e48:	2b01      	cmp	r3, #1
 8001e4a:	d034      	beq.n	8001eb6 <HAL_RCC_ClockConfig+0x10e>
      while(__HAL_RCC_GET_SYSCLK_SOURCE() != RCC_SYSCLKSOURCE_STATUS_MSI)
 8001e4c:	4b45      	ldr	r3, [pc, #276]	@ (8001f64 <HAL_RCC_ClockConfig+0x1bc>)
 8001e4e:	68db      	ldr	r3, [r3, #12]
 8001e50:	220c      	movs	r2, #12
 8001e52:	421a      	tst	r2, r3
 8001e54:	d03d      	beq.n	8001ed2 <HAL_RCC_ClockConfig+0x12a>
        if((HAL_GetTick() - tickstart ) > CLOCKSWITCH_TIMEOUT_VALUE)
 8001e56:	f7fe ffbf 	bl	8000dd8 <HAL_GetTick>
 8001e5a:	1b80      	subs	r0, r0, r6
 8001e5c:	4b42      	ldr	r3, [pc, #264]	@ (8001f68 <HAL_RCC_ClockConfig+0x1c0>)
 8001e5e:	4298      	cmp	r0, r3
 8001e60:	d9f4      	bls.n	8001e4c <HAL_RCC_ClockConfig+0xa4>
          return HAL_TIMEOUT;
 8001e62:	2003      	movs	r0, #3
 8001e64:	e060      	b.n	8001f28 <HAL_RCC_ClockConfig+0x180>
      if(__HAL_RCC_GET_FLAG(RCC_FLAG_PLLRDY) == 0U)
 8001e66:	4a3f      	ldr	r2, [pc, #252]	@ (8001f64 <HAL_RCC_ClockConfig+0x1bc>)
 8001e68:	6812      	ldr	r2, [r2, #0]
 8001e6a:	0192      	lsls	r2, r2, #6
 8001e6c:	d4de      	bmi.n	8001e2c <HAL_RCC_ClockConfig+0x84>
        return HAL_ERROR;
 8001e6e:	2001      	movs	r0, #1
 8001e70:	e05a      	b.n	8001f28 <HAL_RCC_ClockConfig+0x180>
      if(__HAL_RCC_GET_FLAG(RCC_FLAG_HSIRDY) == 0U)
 8001e72:	4a3c      	ldr	r2, [pc, #240]	@ (8001f64 <HAL_RCC_ClockConfig+0x1bc>)
 8001e74:	6812      	ldr	r2, [r2, #0]
 8001e76:	0752      	lsls	r2, r2, #29
 8001e78:	d4d8      	bmi.n	8001e2c <HAL_RCC_ClockConfig+0x84>
        return HAL_ERROR;
 8001e7a:	2001      	movs	r0, #1
 8001e7c:	e054      	b.n	8001f28 <HAL_RCC_ClockConfig+0x180>
      while (__HAL_RCC_GET_SYSCLK_SOURCE() != RCC_SYSCLKSOURCE_STATUS_HSE)
 8001e7e:	4b39      	ldr	r3, [pc, #228]	@ (8001f64 <HAL_RCC_ClockConfig+0x1bc>)
 8001e80:	68da      	ldr	r2, [r3, #12]
 8001e82:	230c      	movs	r3, #12
 8001e84:	4013      	ands	r3, r2
 8001e86:	2b08      	cmp	r3, #8
 8001e88:	d023      	beq.n	8001ed2 <HAL_RCC_ClockConfig+0x12a>
        if((HAL_GetTick() - tickstart ) > CLOCKSWITCH_TIMEOUT_VALUE)
 8001e8a:	f7fe ffa5 	bl	8000dd8 <HAL_GetTick>
 8001e8e:	1b80      	subs	r0, r0, r6
 8001e90:	4a35      	ldr	r2, [pc, #212]	@ (8001f68 <HAL_RCC_ClockConfig+0x1c0>)
 8001e92:	4290      	cmp	r0, r2
 8001e94:	d9f3      	bls.n	8001e7e <HAL_RCC_ClockConfig+0xd6>
          return HAL_TIMEOUT;
 8001e96:	2003      	movs	r0, #3
 8001e98:	e046      	b.n	8001f28 <HAL_RCC_ClockConfig+0x180>
      while (__HAL_RCC_GET_SYSCLK_SOURCE() != RCC_SYSCLKSOURCE_STATUS_PLLCLK)
 8001e9a:	4b32      	ldr	r3, [pc, #200]	@ (8001f64 <HAL_RCC_ClockConfig+0x1bc>)
 8001e9c:	68da      	ldr	r2, [r3, #12]
 8001e9e:	230c      	movs	r3, #12
 8001ea0:	4013      	ands	r3, r2
 8001ea2:	2b0c      	cmp	r3, #12
 8001ea4:	d015      	beq.n	8001ed2 <HAL_RCC_ClockConfig+0x12a>
        if((HAL_GetTick() - tickstart ) > CLOCKSWITCH_TIMEOUT_VALUE)
 8001ea6:	f7fe ff97 	bl	8000dd8 <HAL_GetTick>
 8001eaa:	1b80      	subs	r0, r0, r6
 8001eac:	4b2e      	ldr	r3, [pc, #184]	@ (8001f68 <HAL_RCC_ClockConfig+0x1c0>)
 8001eae:	4298      	cmp	r0, r3
 8001eb0:	d9f3      	bls.n	8001e9a <HAL_RCC_ClockConfig+0xf2>
          return HAL_TIMEOUT;
 8001eb2:	2003      	movs	r0, #3
 8001eb4:	e038      	b.n	8001f28 <HAL_RCC_ClockConfig+0x180>
      while (__HAL_RCC_GET_SYSCLK_SOURCE() != RCC_SYSCLKSOURCE_STATUS_HSI)
 8001eb6:	4b2b      	ldr	r3, [pc, #172]	@ (8001f64 <HAL_RCC_ClockConfig+0x1bc>)
 8001eb8:	68da      	ldr	r2, [r3, #12]
 8001eba:	230c      	movs	r3, #12
 8001ebc:	4013      	ands	r3, r2
 8001ebe:	2b04      	cmp	r3, #4
 8001ec0:	d007      	beq.n	8001ed2 <HAL_RCC_ClockConfig+0x12a>
        if((HAL_GetTick() - tickstart ) > CLOCKSWITCH_TIMEOUT_VALUE)
 8001ec2:	f7fe ff89 	bl	8000dd8 <HAL_GetTick>
 8001ec6:	1b80      	subs	r0, r0, r6
 8001ec8:	4b27      	ldr	r3, [pc, #156]	@ (8001f68 <HAL_RCC_ClockConfig+0x1c0>)
 8001eca:	4298      	cmp	r0, r3
 8001ecc:	d9f3      	bls.n	8001eb6 <HAL_RCC_ClockConfig+0x10e>
          return HAL_TIMEOUT;
 8001ece:	2003      	movs	r0, #3
 8001ed0:	e02a      	b.n	8001f28 <HAL_RCC_ClockConfig+0x180>
  if(FLatency < __HAL_FLASH_GET_LATENCY())
 8001ed2:	4b23      	ldr	r3, [pc, #140]	@ (8001f60 <HAL_RCC_ClockConfig+0x1b8>)
 8001ed4:	681a      	ldr	r2, [r3, #0]
 8001ed6:	2301      	movs	r3, #1
 8001ed8:	4013      	ands	r3, r2
 8001eda:	42a3      	cmp	r3, r4
 8001edc:	d825      	bhi.n	8001f2a <HAL_RCC_ClockConfig+0x182>
  if(((RCC_ClkInitStruct->ClockType) & RCC_CLOCKTYPE_PCLK1) == RCC_CLOCKTYPE_PCLK1)
 8001ede:	682b      	ldr	r3, [r5, #0]
 8001ee0:	075b      	lsls	r3, r3, #29
 8001ee2:	d506      	bpl.n	8001ef2 <HAL_RCC_ClockConfig+0x14a>
    MODIFY_REG(RCC->CFGR, RCC_CFGR_PPRE1, RCC_ClkInitStruct->APB1CLKDivider);
 8001ee4:	4a1f      	ldr	r2, [pc, #124]	@ (8001f64 <HAL_RCC_ClockConfig+0x1bc>)
 8001ee6:	68d3      	ldr	r3, [r2, #12]
 8001ee8:	4920      	ldr	r1, [pc, #128]	@ (8001f6c <HAL_RCC_ClockConfig+0x1c4>)
 8001eea:	400b      	ands	r3, r1
 8001eec:	68e9      	ldr	r1, [r5, #12]
 8001eee:	430b      	orrs	r3, r1
 8001ef0:	60d3      	str	r3, [r2, #12]
  if(((RCC_ClkInitStruct->ClockType) & RCC_CLOCKTYPE_PCLK2) == RCC_CLOCKTYPE_PCLK2)
 8001ef2:	682b      	ldr	r3, [r5, #0]
 8001ef4:	071b      	lsls	r3, r3, #28
 8001ef6:	d507      	bpl.n	8001f08 <HAL_RCC_ClockConfig+0x160>
    MODIFY_REG(RCC->CFGR, RCC_CFGR_PPRE2, ((RCC_ClkInitStruct->APB2CLKDivider) << 3));
 8001ef8:	491a      	ldr	r1, [pc, #104]	@ (8001f64 <HAL_RCC_ClockConfig+0x1bc>)
 8001efa:	68cb      	ldr	r3, [r1, #12]
 8001efc:	4a1c      	ldr	r2, [pc, #112]	@ (8001f70 <HAL_RCC_ClockConfig+0x1c8>)
 8001efe:	4013      	ands	r3, r2
 8001f00:	692a      	ldr	r2, [r5, #16]
 8001f02:	00d2      	lsls	r2, r2, #3
 8001f04:	4313      	orrs	r3, r2
 8001f06:	60cb      	str	r3, [r1, #12]
  SystemCoreClock = HAL_RCC_GetSysClockFreq() >> AHBPrescTable[(RCC->CFGR & RCC_CFGR_HPRE)>> RCC_CFGR_HPRE_Pos];
 8001f08:	f7ff fc68 	bl	80017dc <HAL_RCC_GetSysClockFreq>
 8001f0c:	4b15      	ldr	r3, [pc, #84]	@ (8001f64 <HAL_RCC_ClockConfig+0x1bc>)
 8001f0e:	68da      	ldr	r2, [r3, #12]
 8001f10:	0912      	lsrs	r2, r2, #4
 8001f12:	230f      	movs	r3, #15
 8001f14:	4013      	ands	r3, r2
 8001f16:	4a17      	ldr	r2, [pc, #92]	@ (8001f74 <HAL_RCC_ClockConfig+0x1cc>)
 8001f18:	5cd3      	ldrb	r3, [r2, r3]
 8001f1a:	40d8      	lsrs	r0, r3
 8001f1c:	4b16      	ldr	r3, [pc, #88]	@ (8001f78 <HAL_RCC_ClockConfig+0x1d0>)
 8001f1e:	6018      	str	r0, [r3, #0]
  status = HAL_InitTick(uwTickPrio);
 8001f20:	4b16      	ldr	r3, [pc, #88]	@ (8001f7c <HAL_RCC_ClockConfig+0x1d4>)
 8001f22:	6818      	ldr	r0, [r3, #0]
 8001f24:	f7fe ff10 	bl	8000d48 <HAL_InitTick>
}
 8001f28:	bd70      	pop	{r4, r5, r6, pc}
    __HAL_FLASH_SET_LATENCY(FLatency);
 8001f2a:	4a0d      	ldr	r2, [pc, #52]	@ (8001f60 <HAL_RCC_ClockConfig+0x1b8>)
 8001f2c:	6813      	ldr	r3, [r2, #0]
 8001f2e:	2101      	movs	r1, #1
 8001f30:	438b      	bics	r3, r1
 8001f32:	4323      	orrs	r3, r4
 8001f34:	6013      	str	r3, [r2, #0]
    tickstart = HAL_GetTick();
 8001f36:	f7fe ff4f 	bl	8000dd8 <HAL_GetTick>
 8001f3a:	0006      	movs	r6, r0
    while (__HAL_FLASH_GET_LATENCY() != FLatency)
 8001f3c:	4b08      	ldr	r3, [pc, #32]	@ (8001f60 <HAL_RCC_ClockConfig+0x1b8>)
 8001f3e:	681a      	ldr	r2, [r3, #0]
 8001f40:	2301      	movs	r3, #1
 8001f42:	4013      	ands	r3, r2
 8001f44:	42a3      	cmp	r3, r4
 8001f46:	d0ca      	beq.n	8001ede <HAL_RCC_ClockConfig+0x136>
      if ((HAL_GetTick() - tickstart) > CLOCKSWITCH_TIMEOUT_VALUE)
 8001f48:	f7fe ff46 	bl	8000dd8 <HAL_GetTick>
 8001f4c:	1b80      	subs	r0, r0, r6
 8001f4e:	4b06      	ldr	r3, [pc, #24]	@ (8001f68 <HAL_RCC_ClockConfig+0x1c0>)
 8001f50:	4298      	cmp	r0, r3
 8001f52:	d9f3      	bls.n	8001f3c <HAL_RCC_ClockConfig+0x194>
        return HAL_TIMEOUT;
 8001f54:	2003      	movs	r0, #3
 8001f56:	e7e7      	b.n	8001f28 <HAL_RCC_ClockConfig+0x180>
    return HAL_ERROR;
 8001f58:	2001      	movs	r0, #1
 8001f5a:	e7e5      	b.n	8001f28 <HAL_RCC_ClockConfig+0x180>
        return HAL_ERROR;
 8001f5c:	2001      	movs	r0, #1
 8001f5e:	e7e3      	b.n	8001f28 <HAL_RCC_ClockConfig+0x180>
 8001f60:	40022000 	.word	0x40022000
 8001f64:	40021000 	.word	0x40021000
 8001f68:	00001388 	.word	0x00001388
 8001f6c:	fffff8ff 	.word	0xfffff8ff
 8001f70:	ffffc7ff 	.word	0xffffc7ff
 8001f74:	080028b4 	.word	0x080028b4
 8001f78:	20000014 	.word	0x20000014
 8001f7c:	2000001c 	.word	0x2000001c

08001f80 <HAL_RCC_GetHCLKFreq>:
  *         and updated within this function
  * @retval HCLK frequency
  */
uint32_t HAL_RCC_GetHCLKFreq(void)
{
  return SystemCoreClock;
 8001f80:	4b01      	ldr	r3, [pc, #4]	@ (8001f88 <HAL_RCC_GetHCLKFreq+0x8>)
 8001f82:	6818      	ldr	r0, [r3, #0]
}
 8001f84:	4770      	bx	lr
 8001f86:	46c0      	nop			@ (mov r8, r8)
 8001f88:	20000014 	.word	0x20000014

08001f8c <HAL_RCC_GetPCLK1Freq>:
  * @note   Each time PCLK1 changes, this function must be called to update the
  *         right PCLK1 value. Otherwise, any configuration based on this function will be incorrect.
  * @retval PCLK1 frequency
  */
uint32_t HAL_RCC_GetPCLK1Freq(void)
{
 8001f8c:	b510      	push	{r4, lr}
  /* Get HCLK source and Compute PCLK1 frequency ---------------------------*/
  return (HAL_RCC_GetHCLKFreq() >> APBPrescTable[(RCC->CFGR & RCC_CFGR_PPRE1) >> RCC_CFGR_PPRE1_Pos]);
 8001f8e:	f7ff fff7 	bl	8001f80 <HAL_RCC_GetHCLKFreq>
 8001f92:	4b04      	ldr	r3, [pc, #16]	@ (8001fa4 <HAL_RCC_GetPCLK1Freq+0x18>)
 8001f94:	68da      	ldr	r2, [r3, #12]
 8001f96:	0a12      	lsrs	r2, r2, #8
 8001f98:	2307      	movs	r3, #7
 8001f9a:	4013      	ands	r3, r2
 8001f9c:	4a02      	ldr	r2, [pc, #8]	@ (8001fa8 <HAL_RCC_GetPCLK1Freq+0x1c>)
 8001f9e:	5cd3      	ldrb	r3, [r2, r3]
 8001fa0:	40d8      	lsrs	r0, r3
}
 8001fa2:	bd10      	pop	{r4, pc}
 8001fa4:	40021000 	.word	0x40021000
 8001fa8:	080028ac 	.word	0x080028ac

08001fac <HAL_RCC_GetPCLK2Freq>:
  * @note   Each time PCLK2 changes, this function must be called to update the
  *         right PCLK2 value. Otherwise, any configuration based on this function will be incorrect.
  * @retval PCLK2 frequency
  */
uint32_t HAL_RCC_GetPCLK2Freq(void)
{
 8001fac:	b510      	push	{r4, lr}
  /* Get HCLK source and Compute PCLK2 frequency ---------------------------*/
  return (HAL_RCC_GetHCLKFreq()>> APBPrescTable[(RCC->CFGR & RCC_CFGR_PPRE2) >> RCC_CFGR_PPRE2_Pos]);
 8001fae:	f7ff ffe7 	bl	8001f80 <HAL_RCC_GetHCLKFreq>
 8001fb2:	4b04      	ldr	r3, [pc, #16]	@ (8001fc4 <HAL_RCC_GetPCLK2Freq+0x18>)
 8001fb4:	68da      	ldr	r2, [r3, #12]
 8001fb6:	0ad2      	lsrs	r2, r2, #11
 8001fb8:	2307      	movs	r3, #7
 8001fba:	4013      	ands	r3, r2
 8001fbc:	4a02      	ldr	r2, [pc, #8]	@ (8001fc8 <HAL_RCC_GetPCLK2Freq+0x1c>)
 8001fbe:	5cd3      	ldrb	r3, [r2, r3]
 8001fc0:	40d8      	lsrs	r0, r3
}
 8001fc2:	bd10      	pop	{r4, pc}
 8001fc4:	40021000 	.word	0x40021000
 8001fc8:	080028ac 	.word	0x080028ac

08001fcc <HAL_RCCEx_PeriphCLKConfig>:
  * @retval HAL status
  * @note   If HAL_ERROR returned, first switch-OFF HSE clock oscillator with @ref HAL_RCC_OscConfig()
  *         to possibly update HSE divider.
  */
HAL_StatusTypeDef HAL_RCCEx_PeriphCLKConfig(RCC_PeriphCLKInitTypeDef  *PeriphClkInit)
{
 8001fcc:	b570      	push	{r4, r5, r6, lr}
 8001fce:	0004      	movs	r4, r0

  /* Check the parameters */
  assert_param(IS_RCC_PERIPHCLOCK(PeriphClkInit->PeriphClockSelection));

  /*------------------------------- RTC/LCD Configuration ------------------------*/
  if ((((PeriphClkInit->PeriphClockSelection) & RCC_PERIPHCLK_RTC) == RCC_PERIPHCLK_RTC)
 8001fd0:	6803      	ldr	r3, [r0, #0]
 8001fd2:	069b      	lsls	r3, r3, #26
 8001fd4:	d54e      	bpl.n	8002074 <HAL_RCCEx_PeriphCLKConfig+0xa8>
#endif /* LCD */

    /* As soon as function is called to change RTC clock source, activation of the
       power domain is done. */
    /* Requires to enable write access to Backup Domain of necessary */
    if(__HAL_RCC_PWR_IS_CLK_DISABLED())
 8001fd6:	4b5b      	ldr	r3, [pc, #364]	@ (8002144 <HAL_RCCEx_PeriphCLKConfig+0x178>)
 8001fd8:	6b9b      	ldr	r3, [r3, #56]	@ 0x38
 8001fda:	00db      	lsls	r3, r3, #3
 8001fdc:	d474      	bmi.n	80020c8 <HAL_RCCEx_PeriphCLKConfig+0xfc>
    {
      __HAL_RCC_PWR_CLK_ENABLE();
 8001fde:	4a59      	ldr	r2, [pc, #356]	@ (8002144 <HAL_RCCEx_PeriphCLKConfig+0x178>)
 8001fe0:	6b91      	ldr	r1, [r2, #56]	@ 0x38
 8001fe2:	2380      	movs	r3, #128	@ 0x80
 8001fe4:	055b      	lsls	r3, r3, #21
 8001fe6:	430b      	orrs	r3, r1
 8001fe8:	6393      	str	r3, [r2, #56]	@ 0x38
      pwrclkchanged = SET;
 8001fea:	2601      	movs	r6, #1
    }

    if(HAL_IS_BIT_CLR(PWR->CR, PWR_CR_DBP))
 8001fec:	4b56      	ldr	r3, [pc, #344]	@ (8002148 <HAL_RCCEx_PeriphCLKConfig+0x17c>)
 8001fee:	681b      	ldr	r3, [r3, #0]
 8001ff0:	05db      	lsls	r3, r3, #23
 8001ff2:	d56b      	bpl.n	80020cc <HAL_RCCEx_PeriphCLKConfig+0x100>
        }
      }
    }

    /* Check if user wants to change HSE RTC prescaler whereas HSE is enabled */
    temp_reg = (RCC->CR & RCC_CR_RTCPRE);
 8001ff4:	4b53      	ldr	r3, [pc, #332]	@ (8002144 <HAL_RCCEx_PeriphCLKConfig+0x178>)
 8001ff6:	681b      	ldr	r3, [r3, #0]
    if ((temp_reg != (PeriphClkInit->RTCClockSelection & RCC_CR_RTCPRE))
 8001ff8:	6862      	ldr	r2, [r4, #4]
 8001ffa:	4053      	eors	r3, r2
 8001ffc:	21c0      	movs	r1, #192	@ 0xc0
 8001ffe:	0389      	lsls	r1, r1, #14
 8002000:	420b      	tst	r3, r1
 8002002:	d005      	beq.n	8002010 <HAL_RCCEx_PeriphCLKConfig+0x44>
#if defined (LCD)
     || (temp_reg != (PeriphClkInit->LCDClockSelection & RCC_CR_RTCPRE))
#endif /* LCD */
       )
    { /* Check HSE State */
      if ((PeriphClkInit->RTCClockSelection & RCC_CSR_RTCSEL) == RCC_CSR_RTCSEL_HSE)
 8002004:	23c0      	movs	r3, #192	@ 0xc0
 8002006:	029b      	lsls	r3, r3, #10
 8002008:	0011      	movs	r1, r2
 800200a:	4019      	ands	r1, r3
 800200c:	4299      	cmp	r1, r3
 800200e:	d071      	beq.n	80020f4 <HAL_RCCEx_PeriphCLKConfig+0x128>
        }
      }
    }

    /* Reset the Backup domain only if the RTC Clock source selection is modified from reset value */
    temp_reg = (RCC->CSR & RCC_CSR_RTCSEL);
 8002010:	4b4c      	ldr	r3, [pc, #304]	@ (8002144 <HAL_RCCEx_PeriphCLKConfig+0x178>)
 8002012:	6d19      	ldr	r1, [r3, #80]	@ 0x50
 8002014:	23c0      	movs	r3, #192	@ 0xc0
 8002016:	029b      	lsls	r3, r3, #10
 8002018:	0008      	movs	r0, r1
 800201a:	4018      	ands	r0, r3

    if((temp_reg != 0x00000000U) && (((temp_reg != (PeriphClkInit->RTCClockSelection & RCC_CSR_RTCSEL)) \
 800201c:	4219      	tst	r1, r3
 800201e:	d015      	beq.n	800204c <HAL_RCCEx_PeriphCLKConfig+0x80>
 8002020:	401a      	ands	r2, r3
 8002022:	4282      	cmp	r2, r0
 8002024:	d012      	beq.n	800204c <HAL_RCCEx_PeriphCLKConfig+0x80>
      && (((PeriphClkInit->PeriphClockSelection) & RCC_PERIPHCLK_RTC) == RCC_PERIPHCLK_RTC))
 8002026:	6823      	ldr	r3, [r4, #0]
 8002028:	069b      	lsls	r3, r3, #26
 800202a:	d50f      	bpl.n	800204c <HAL_RCCEx_PeriphCLKConfig+0x80>
       && (((PeriphClkInit->PeriphClockSelection) & RCC_PERIPHCLK_LCD) == RCC_PERIPHCLK_LCD))
#endif /* LCD */
     ))
    {
      /* Store the content of CSR register before the reset of Backup Domain */
      temp_reg = (RCC->CSR & ~(RCC_CSR_RTCSEL));
 800202c:	4b45      	ldr	r3, [pc, #276]	@ (8002144 <HAL_RCCEx_PeriphCLKConfig+0x178>)
 800202e:	6d1a      	ldr	r2, [r3, #80]	@ 0x50
 8002030:	4946      	ldr	r1, [pc, #280]	@ (800214c <HAL_RCCEx_PeriphCLKConfig+0x180>)
 8002032:	4011      	ands	r1, r2

      /* RTC Clock selection can be changed only if the Backup Domain is reset */
      __HAL_RCC_BACKUPRESET_FORCE();
 8002034:	6d1d      	ldr	r5, [r3, #80]	@ 0x50
 8002036:	2080      	movs	r0, #128	@ 0x80
 8002038:	0300      	lsls	r0, r0, #12
 800203a:	4328      	orrs	r0, r5
 800203c:	6518      	str	r0, [r3, #80]	@ 0x50
      __HAL_RCC_BACKUPRESET_RELEASE();
 800203e:	6d18      	ldr	r0, [r3, #80]	@ 0x50
 8002040:	4d43      	ldr	r5, [pc, #268]	@ (8002150 <HAL_RCCEx_PeriphCLKConfig+0x184>)
 8002042:	4028      	ands	r0, r5
 8002044:	6518      	str	r0, [r3, #80]	@ 0x50

      /* Restore the Content of CSR register */
      RCC->CSR = temp_reg;
 8002046:	6519      	str	r1, [r3, #80]	@ 0x50

       /* Wait for LSERDY if LSE was enabled */
      if (HAL_IS_BIT_SET(temp_reg, RCC_CSR_LSEON))
 8002048:	05d2      	lsls	r2, r2, #23
 800204a:	d459      	bmi.n	8002100 <HAL_RCCEx_PeriphCLKConfig+0x134>
    {
      __HAL_RCC_LCD_CONFIG(PeriphClkInit->LCDClockSelection);
    } 
#endif /* LCD */

    if(((PeriphClkInit->PeriphClockSelection) & RCC_PERIPHCLK_RTC) == RCC_PERIPHCLK_RTC)
 800204c:	6823      	ldr	r3, [r4, #0]
 800204e:	069b      	lsls	r3, r3, #26
 8002050:	d50e      	bpl.n	8002070 <HAL_RCCEx_PeriphCLKConfig+0xa4>
    {
      __HAL_RCC_RTC_CONFIG(PeriphClkInit->RTCClockSelection);
 8002052:	6863      	ldr	r3, [r4, #4]
 8002054:	22c0      	movs	r2, #192	@ 0xc0
 8002056:	0292      	lsls	r2, r2, #10
 8002058:	0019      	movs	r1, r3
 800205a:	4011      	ands	r1, r2
 800205c:	4291      	cmp	r1, r2
 800205e:	d05e      	beq.n	800211e <HAL_RCCEx_PeriphCLKConfig+0x152>
 8002060:	4938      	ldr	r1, [pc, #224]	@ (8002144 <HAL_RCCEx_PeriphCLKConfig+0x178>)
 8002062:	6d0b      	ldr	r3, [r1, #80]	@ 0x50
 8002064:	6862      	ldr	r2, [r4, #4]
 8002066:	20c0      	movs	r0, #192	@ 0xc0
 8002068:	0280      	lsls	r0, r0, #10
 800206a:	4002      	ands	r2, r0
 800206c:	4313      	orrs	r3, r2
 800206e:	650b      	str	r3, [r1, #80]	@ 0x50
    }

    /* Require to disable power clock if necessary */
    if(pwrclkchanged == SET)
 8002070:	2e01      	cmp	r6, #1
 8002072:	d05e      	beq.n	8002132 <HAL_RCCEx_PeriphCLKConfig+0x166>
    __HAL_RCC_USART1_CONFIG(PeriphClkInit->Usart1ClockSelection);
  }
#endif /* RCC_CCIPR_USART1SEL */

  /*----------------------------- USART2 Configuration --------------------------*/
  if(((PeriphClkInit->PeriphClockSelection) & RCC_PERIPHCLK_USART2) == RCC_PERIPHCLK_USART2)
 8002074:	6823      	ldr	r3, [r4, #0]
 8002076:	079b      	lsls	r3, r3, #30
 8002078:	d506      	bpl.n	8002088 <HAL_RCCEx_PeriphCLKConfig+0xbc>
  {
    /* Check the parameters */
    assert_param(IS_RCC_USART2CLKSOURCE(PeriphClkInit->Usart2ClockSelection));

    /* Configure the USART2 clock source */
    __HAL_RCC_USART2_CONFIG(PeriphClkInit->Usart2ClockSelection);
 800207a:	4a32      	ldr	r2, [pc, #200]	@ (8002144 <HAL_RCCEx_PeriphCLKConfig+0x178>)
 800207c:	6cd3      	ldr	r3, [r2, #76]	@ 0x4c
 800207e:	210c      	movs	r1, #12
 8002080:	438b      	bics	r3, r1
 8002082:	68a1      	ldr	r1, [r4, #8]
 8002084:	430b      	orrs	r3, r1
 8002086:	64d3      	str	r3, [r2, #76]	@ 0x4c
  }

  /*------------------------------ LPUART1 Configuration ------------------------*/
  if(((PeriphClkInit->PeriphClockSelection) & RCC_PERIPHCLK_LPUART1) == RCC_PERIPHCLK_LPUART1)
 8002088:	6823      	ldr	r3, [r4, #0]
 800208a:	075b      	lsls	r3, r3, #29
 800208c:	d506      	bpl.n	800209c <HAL_RCCEx_PeriphCLKConfig+0xd0>
  {
    /* Check the parameters */
    assert_param(IS_RCC_LPUART1CLKSOURCE(PeriphClkInit->Lpuart1ClockSelection));

    /* Configure the LPUAR1 clock source */
    __HAL_RCC_LPUART1_CONFIG(PeriphClkInit->Lpuart1ClockSelection);
 800208e:	4a2d      	ldr	r2, [pc, #180]	@ (8002144 <HAL_RCCEx_PeriphCLKConfig+0x178>)
 8002090:	6cd3      	ldr	r3, [r2, #76]	@ 0x4c
 8002092:	4930      	ldr	r1, [pc, #192]	@ (8002154 <HAL_RCCEx_PeriphCLKConfig+0x188>)
 8002094:	400b      	ands	r3, r1
 8002096:	68e1      	ldr	r1, [r4, #12]
 8002098:	430b      	orrs	r3, r1
 800209a:	64d3      	str	r3, [r2, #76]	@ 0x4c
  }

  /*------------------------------ I2C1 Configuration ------------------------*/
  if(((PeriphClkInit->PeriphClockSelection) & RCC_PERIPHCLK_I2C1) == RCC_PERIPHCLK_I2C1)
 800209c:	6823      	ldr	r3, [r4, #0]
 800209e:	071b      	lsls	r3, r3, #28
 80020a0:	d506      	bpl.n	80020b0 <HAL_RCCEx_PeriphCLKConfig+0xe4>
  {
    /* Check the parameters */
    assert_param(IS_RCC_I2C1CLKSOURCE(PeriphClkInit->I2c1ClockSelection));

    /* Configure the I2C1 clock source */
    __HAL_RCC_I2C1_CONFIG(PeriphClkInit->I2c1ClockSelection);
 80020a2:	4a28      	ldr	r2, [pc, #160]	@ (8002144 <HAL_RCCEx_PeriphCLKConfig+0x178>)
 80020a4:	6cd3      	ldr	r3, [r2, #76]	@ 0x4c
 80020a6:	492c      	ldr	r1, [pc, #176]	@ (8002158 <HAL_RCCEx_PeriphCLKConfig+0x18c>)
 80020a8:	400b      	ands	r3, r1
 80020aa:	6921      	ldr	r1, [r4, #16]
 80020ac:	430b      	orrs	r3, r1
 80020ae:	64d3      	str	r3, [r2, #76]	@ 0x4c
    __HAL_RCC_USB_CONFIG(PeriphClkInit->UsbClockSelection);
  }
#endif /* USB */

  /*---------------------------- LPTIM1 configuration ------------------------*/
  if(((PeriphClkInit->PeriphClockSelection) & RCC_PERIPHCLK_LPTIM1) == (RCC_PERIPHCLK_LPTIM1))
 80020b0:	6823      	ldr	r3, [r4, #0]
 80020b2:	061b      	lsls	r3, r3, #24
 80020b4:	d543      	bpl.n	800213e <HAL_RCCEx_PeriphCLKConfig+0x172>
  {
    assert_param(IS_RCC_LPTIMCLK(PeriphClkInit->LptimClockSelection));
    __HAL_RCC_LPTIM1_CONFIG(PeriphClkInit->LptimClockSelection);
 80020b6:	4a23      	ldr	r2, [pc, #140]	@ (8002144 <HAL_RCCEx_PeriphCLKConfig+0x178>)
 80020b8:	6cd3      	ldr	r3, [r2, #76]	@ 0x4c
 80020ba:	4928      	ldr	r1, [pc, #160]	@ (800215c <HAL_RCCEx_PeriphCLKConfig+0x190>)
 80020bc:	400b      	ands	r3, r1
 80020be:	6961      	ldr	r1, [r4, #20]
 80020c0:	430b      	orrs	r3, r1
 80020c2:	64d3      	str	r3, [r2, #76]	@ 0x4c
  }

  return HAL_OK;
 80020c4:	2000      	movs	r0, #0
 80020c6:	e03b      	b.n	8002140 <HAL_RCCEx_PeriphCLKConfig+0x174>
  FlagStatus       pwrclkchanged = RESET;
 80020c8:	2600      	movs	r6, #0
 80020ca:	e78f      	b.n	8001fec <HAL_RCCEx_PeriphCLKConfig+0x20>
      SET_BIT(PWR->CR, PWR_CR_DBP);
 80020cc:	4a1e      	ldr	r2, [pc, #120]	@ (8002148 <HAL_RCCEx_PeriphCLKConfig+0x17c>)
 80020ce:	6811      	ldr	r1, [r2, #0]
 80020d0:	2380      	movs	r3, #128	@ 0x80
 80020d2:	005b      	lsls	r3, r3, #1
 80020d4:	430b      	orrs	r3, r1
 80020d6:	6013      	str	r3, [r2, #0]
      tickstart = HAL_GetTick();
 80020d8:	f7fe fe7e 	bl	8000dd8 <HAL_GetTick>
 80020dc:	0005      	movs	r5, r0
      while(HAL_IS_BIT_CLR(PWR->CR, PWR_CR_DBP))
 80020de:	4b1a      	ldr	r3, [pc, #104]	@ (8002148 <HAL_RCCEx_PeriphCLKConfig+0x17c>)
 80020e0:	681b      	ldr	r3, [r3, #0]
 80020e2:	05db      	lsls	r3, r3, #23
 80020e4:	d486      	bmi.n	8001ff4 <HAL_RCCEx_PeriphCLKConfig+0x28>
        if((HAL_GetTick() - tickstart) > RCC_DBP_TIMEOUT_VALUE)
 80020e6:	f7fe fe77 	bl	8000dd8 <HAL_GetTick>
 80020ea:	1b40      	subs	r0, r0, r5
 80020ec:	2864      	cmp	r0, #100	@ 0x64
 80020ee:	d9f6      	bls.n	80020de <HAL_RCCEx_PeriphCLKConfig+0x112>
          return HAL_TIMEOUT;
 80020f0:	2003      	movs	r0, #3
 80020f2:	e025      	b.n	8002140 <HAL_RCCEx_PeriphCLKConfig+0x174>
        if (HAL_IS_BIT_SET(RCC->CR, RCC_CR_HSERDY))
 80020f4:	4b13      	ldr	r3, [pc, #76]	@ (8002144 <HAL_RCCEx_PeriphCLKConfig+0x178>)
 80020f6:	681b      	ldr	r3, [r3, #0]
 80020f8:	039b      	lsls	r3, r3, #14
 80020fa:	d589      	bpl.n	8002010 <HAL_RCCEx_PeriphCLKConfig+0x44>
          return HAL_ERROR;
 80020fc:	2001      	movs	r0, #1
 80020fe:	e01f      	b.n	8002140 <HAL_RCCEx_PeriphCLKConfig+0x174>
        tickstart = HAL_GetTick();
 8002100:	f7fe fe6a 	bl	8000dd8 <HAL_GetTick>
 8002104:	0005      	movs	r5, r0
        while(__HAL_RCC_GET_FLAG(RCC_FLAG_LSERDY) == 0U)
 8002106:	4b0f      	ldr	r3, [pc, #60]	@ (8002144 <HAL_RCCEx_PeriphCLKConfig+0x178>)
 8002108:	6d1b      	ldr	r3, [r3, #80]	@ 0x50
 800210a:	059b      	lsls	r3, r3, #22
 800210c:	d49e      	bmi.n	800204c <HAL_RCCEx_PeriphCLKConfig+0x80>
          if((HAL_GetTick() - tickstart ) > RCC_LSE_TIMEOUT_VALUE)
 800210e:	f7fe fe63 	bl	8000dd8 <HAL_GetTick>
 8002112:	1b40      	subs	r0, r0, r5
 8002114:	4b12      	ldr	r3, [pc, #72]	@ (8002160 <HAL_RCCEx_PeriphCLKConfig+0x194>)
 8002116:	4298      	cmp	r0, r3
 8002118:	d9f5      	bls.n	8002106 <HAL_RCCEx_PeriphCLKConfig+0x13a>
            return HAL_TIMEOUT;
 800211a:	2003      	movs	r0, #3
 800211c:	e010      	b.n	8002140 <HAL_RCCEx_PeriphCLKConfig+0x174>
      __HAL_RCC_RTC_CONFIG(PeriphClkInit->RTCClockSelection);
 800211e:	4909      	ldr	r1, [pc, #36]	@ (8002144 <HAL_RCCEx_PeriphCLKConfig+0x178>)
 8002120:	680a      	ldr	r2, [r1, #0]
 8002122:	4810      	ldr	r0, [pc, #64]	@ (8002164 <HAL_RCCEx_PeriphCLKConfig+0x198>)
 8002124:	4002      	ands	r2, r0
 8002126:	20c0      	movs	r0, #192	@ 0xc0
 8002128:	0380      	lsls	r0, r0, #14
 800212a:	4003      	ands	r3, r0
 800212c:	4313      	orrs	r3, r2
 800212e:	600b      	str	r3, [r1, #0]
 8002130:	e796      	b.n	8002060 <HAL_RCCEx_PeriphCLKConfig+0x94>
      __HAL_RCC_PWR_CLK_DISABLE();
 8002132:	4a04      	ldr	r2, [pc, #16]	@ (8002144 <HAL_RCCEx_PeriphCLKConfig+0x178>)
 8002134:	6b93      	ldr	r3, [r2, #56]	@ 0x38
 8002136:	490c      	ldr	r1, [pc, #48]	@ (8002168 <HAL_RCCEx_PeriphCLKConfig+0x19c>)
 8002138:	400b      	ands	r3, r1
 800213a:	6393      	str	r3, [r2, #56]	@ 0x38
 800213c:	e79a      	b.n	8002074 <HAL_RCCEx_PeriphCLKConfig+0xa8>
  return HAL_OK;
 800213e:	2000      	movs	r0, #0
}
 8002140:	bd70      	pop	{r4, r5, r6, pc}
 8002142:	46c0      	nop			@ (mov r8, r8)
 8002144:	40021000 	.word	0x40021000
 8002148:	40007000 	.word	0x40007000
 800214c:	fffcffff 	.word	0xfffcffff
 8002150:	fff7ffff 	.word	0xfff7ffff
 8002154:	fffff3ff 	.word	0xfffff3ff
 8002158:	ffffcfff 	.word	0xffffcfff
 800215c:	fff3ffff 	.word	0xfff3ffff
 8002160:	00001388 	.word	0x00001388
 8002164:	ffcfffff 	.word	0xffcfffff
 8002168:	efffffff 	.word	0xefffffff

0800216c <HAL_RTC_WaitForSynchro>:
  * @param  hrtc pointer to a RTC_HandleTypeDef structure that contains
  *                the configuration information for RTC.
  * @retval HAL status
  */
HAL_StatusTypeDef HAL_RTC_WaitForSynchro(RTC_HandleTypeDef *hrtc)
{
 800216c:	b570      	push	{r4, r5, r6, lr}
 800216e:	0004      	movs	r4, r0
  uint32_t tickstart = 0U;

  /* Clear RSF flag, keep reserved bits at reset values (setting other flags has no effect) */
  hrtc->Instance->ISR = ((uint32_t)(RTC_RSF_MASK & RTC_ISR_RESERVED_MASK));
 8002170:	6803      	ldr	r3, [r0, #0]
 8002172:	4a0a      	ldr	r2, [pc, #40]	@ (800219c <HAL_RTC_WaitForSynchro+0x30>)
 8002174:	60da      	str	r2, [r3, #12]

  /* Get tick */
  tickstart = HAL_GetTick();
 8002176:	f7fe fe2f 	bl	8000dd8 <HAL_GetTick>
 800217a:	0005      	movs	r5, r0

  /* Wait the registers to be synchronised */
  while ((hrtc->Instance->ISR & RTC_ISR_RSF) == 0U)
 800217c:	6823      	ldr	r3, [r4, #0]
 800217e:	68db      	ldr	r3, [r3, #12]
 8002180:	069b      	lsls	r3, r3, #26
 8002182:	d408      	bmi.n	8002196 <HAL_RTC_WaitForSynchro+0x2a>
  {
    if ((HAL_GetTick() - tickstart) > RTC_TIMEOUT_VALUE)
 8002184:	f7fe fe28 	bl	8000dd8 <HAL_GetTick>
 8002188:	1b40      	subs	r0, r0, r5
 800218a:	23fa      	movs	r3, #250	@ 0xfa
 800218c:	009b      	lsls	r3, r3, #2
 800218e:	4298      	cmp	r0, r3
 8002190:	d9f4      	bls.n	800217c <HAL_RTC_WaitForSynchro+0x10>
    {
      return HAL_TIMEOUT;
 8002192:	2003      	movs	r0, #3
 8002194:	e000      	b.n	8002198 <HAL_RTC_WaitForSynchro+0x2c>
    }
  }

  return HAL_OK;
 8002196:	2000      	movs	r0, #0
}
 8002198:	bd70      	pop	{r4, r5, r6, pc}
 800219a:	46c0      	nop			@ (mov r8, r8)
 800219c:	0001ff5f 	.word	0x0001ff5f

080021a0 <RTC_EnterInitMode>:
  * @param  hrtc pointer to a RTC_HandleTypeDef structure that contains
  *                the configuration information for RTC.
  * @retval HAL status
  */
HAL_StatusTypeDef RTC_EnterInitMode(RTC_HandleTypeDef *hrtc)
{
 80021a0:	b570      	push	{r4, r5, r6, lr}
 80021a2:	0004      	movs	r4, r0
  uint32_t tickstart = 0U;
  HAL_StatusTypeDef status = HAL_OK;

  /* Check that Initialization mode is not already set */
  if (READ_BIT(hrtc->Instance->ISR, RTC_ISR_INITF) == 0U)
 80021a4:	6802      	ldr	r2, [r0, #0]
 80021a6:	68d3      	ldr	r3, [r2, #12]
 80021a8:	065b      	lsls	r3, r3, #25
 80021aa:	d502      	bpl.n	80021b2 <RTC_EnterInitMode+0x12>
  HAL_StatusTypeDef status = HAL_OK;
 80021ac:	2500      	movs	r5, #0
      }
    }
  }

  return status;
}
 80021ae:	0028      	movs	r0, r5
 80021b0:	bd70      	pop	{r4, r5, r6, pc}
    SET_BIT(hrtc->Instance->ISR, RTC_ISR_INIT);
 80021b2:	68d3      	ldr	r3, [r2, #12]
 80021b4:	2180      	movs	r1, #128	@ 0x80
 80021b6:	430b      	orrs	r3, r1
 80021b8:	60d3      	str	r3, [r2, #12]
    tickstart = HAL_GetTick();
 80021ba:	f7fe fe0d 	bl	8000dd8 <HAL_GetTick>
 80021be:	0006      	movs	r6, r0
  HAL_StatusTypeDef status = HAL_OK;
 80021c0:	2500      	movs	r5, #0
    while ((READ_BIT(hrtc->Instance->ISR, RTC_ISR_INITF) == 0U) && (status != HAL_ERROR))
 80021c2:	6823      	ldr	r3, [r4, #0]
 80021c4:	68db      	ldr	r3, [r3, #12]
 80021c6:	065b      	lsls	r3, r3, #25
 80021c8:	d4f1      	bmi.n	80021ae <RTC_EnterInitMode+0xe>
 80021ca:	2d01      	cmp	r5, #1
 80021cc:	d0ef      	beq.n	80021ae <RTC_EnterInitMode+0xe>
      if ((HAL_GetTick() - tickstart) > RTC_TIMEOUT_VALUE)
 80021ce:	f7fe fe03 	bl	8000dd8 <HAL_GetTick>
 80021d2:	1b80      	subs	r0, r0, r6
 80021d4:	22fa      	movs	r2, #250	@ 0xfa
 80021d6:	0092      	lsls	r2, r2, #2
 80021d8:	4290      	cmp	r0, r2
 80021da:	d9f2      	bls.n	80021c2 <RTC_EnterInitMode+0x22>
        hrtc->State = HAL_RTC_STATE_ERROR;
 80021dc:	2321      	movs	r3, #33	@ 0x21
 80021de:	2204      	movs	r2, #4
 80021e0:	54e2      	strb	r2, [r4, r3]
        status = HAL_ERROR;
 80021e2:	2501      	movs	r5, #1
 80021e4:	e7ed      	b.n	80021c2 <RTC_EnterInitMode+0x22>

080021e6 <RTC_ExitInitMode>:
  * @param  hrtc pointer to a RTC_HandleTypeDef structure that contains
  *                the configuration information for RTC.
  * @retval HAL status
  */
HAL_StatusTypeDef RTC_ExitInitMode(RTC_HandleTypeDef *hrtc)
{
 80021e6:	b510      	push	{r4, lr}
 80021e8:	0004      	movs	r4, r0
  HAL_StatusTypeDef status = HAL_OK;

  /* Clear INIT bit to exit Initialization mode */
  CLEAR_BIT(hrtc->Instance->ISR, RTC_ISR_INIT);
 80021ea:	6802      	ldr	r2, [r0, #0]
 80021ec:	68d3      	ldr	r3, [r2, #12]
 80021ee:	2180      	movs	r1, #128	@ 0x80
 80021f0:	438b      	bics	r3, r1
 80021f2:	60d3      	str	r3, [r2, #12]

  /* If CR_BYPSHAD bit = 0, wait for synchro */
  if (READ_BIT(hrtc->Instance->CR, RTC_CR_BYPSHAD) == 0U)
 80021f4:	6803      	ldr	r3, [r0, #0]
 80021f6:	689b      	ldr	r3, [r3, #8]
 80021f8:	069b      	lsls	r3, r3, #26
 80021fa:	d501      	bpl.n	8002200 <RTC_ExitInitMode+0x1a>
  HAL_StatusTypeDef status = HAL_OK;
 80021fc:	2000      	movs	r0, #0
      status = HAL_ERROR;
    }
  }

  return status;
}
 80021fe:	bd10      	pop	{r4, pc}
    if (HAL_RTC_WaitForSynchro(hrtc) != HAL_OK)
 8002200:	f7ff ffb4 	bl	800216c <HAL_RTC_WaitForSynchro>
 8002204:	2800      	cmp	r0, #0
 8002206:	d0fa      	beq.n	80021fe <RTC_ExitInitMode+0x18>
      hrtc->State = HAL_RTC_STATE_ERROR;
 8002208:	2321      	movs	r3, #33	@ 0x21
 800220a:	2204      	movs	r2, #4
 800220c:	54e2      	strb	r2, [r4, r3]
      status = HAL_ERROR;
 800220e:	2001      	movs	r0, #1
 8002210:	e7f5      	b.n	80021fe <RTC_ExitInitMode+0x18>
	...

08002214 <HAL_RTC_Init>:
{
 8002214:	b570      	push	{r4, r5, r6, lr}
 8002216:	1e04      	subs	r4, r0, #0
  if (hrtc == NULL)
 8002218:	d04e      	beq.n	80022b8 <HAL_RTC_Init+0xa4>
  if (hrtc->State == HAL_RTC_STATE_RESET)
 800221a:	2321      	movs	r3, #33	@ 0x21
 800221c:	5cc3      	ldrb	r3, [r0, r3]
 800221e:	2b00      	cmp	r3, #0
 8002220:	d00b      	beq.n	800223a <HAL_RTC_Init+0x26>
  hrtc->State = HAL_RTC_STATE_BUSY;
 8002222:	2321      	movs	r3, #33	@ 0x21
 8002224:	2202      	movs	r2, #2
 8002226:	54e2      	strb	r2, [r4, r3]
  if (__HAL_RTC_IS_CALENDAR_INITIALIZED(hrtc) == 0U)
 8002228:	6822      	ldr	r2, [r4, #0]
 800222a:	68d3      	ldr	r3, [r2, #12]
 800222c:	06db      	lsls	r3, r3, #27
 800222e:	d50a      	bpl.n	8002246 <HAL_RTC_Init+0x32>
    status = HAL_OK;
 8002230:	2000      	movs	r0, #0
    hrtc->State = HAL_RTC_STATE_READY;
 8002232:	2321      	movs	r3, #33	@ 0x21
 8002234:	2201      	movs	r2, #1
 8002236:	54e2      	strb	r2, [r4, r3]
}
 8002238:	bd70      	pop	{r4, r5, r6, pc}
    hrtc->Lock = HAL_UNLOCKED;
 800223a:	3320      	adds	r3, #32
 800223c:	2200      	movs	r2, #0
 800223e:	54c2      	strb	r2, [r0, r3]
    HAL_RTC_MspInit(hrtc);
 8002240:	f7fe fc16 	bl	8000a70 <HAL_RTC_MspInit>
 8002244:	e7ed      	b.n	8002222 <HAL_RTC_Init+0xe>
    __HAL_RTC_WRITEPROTECTION_DISABLE(hrtc);
 8002246:	23ca      	movs	r3, #202	@ 0xca
 8002248:	6253      	str	r3, [r2, #36]	@ 0x24
 800224a:	6823      	ldr	r3, [r4, #0]
 800224c:	2253      	movs	r2, #83	@ 0x53
 800224e:	625a      	str	r2, [r3, #36]	@ 0x24
    status = RTC_EnterInitMode(hrtc);
 8002250:	0020      	movs	r0, r4
 8002252:	f7ff ffa5 	bl	80021a0 <RTC_EnterInitMode>
    if (status == HAL_OK)
 8002256:	2800      	cmp	r0, #0
 8002258:	d005      	beq.n	8002266 <HAL_RTC_Init+0x52>
    __HAL_RTC_WRITEPROTECTION_ENABLE(hrtc);
 800225a:	6823      	ldr	r3, [r4, #0]
 800225c:	22ff      	movs	r2, #255	@ 0xff
 800225e:	625a      	str	r2, [r3, #36]	@ 0x24
  if (status == HAL_OK)
 8002260:	2800      	cmp	r0, #0
 8002262:	d1e9      	bne.n	8002238 <HAL_RTC_Init+0x24>
 8002264:	e7e5      	b.n	8002232 <HAL_RTC_Init+0x1e>
      hrtc->Instance->CR &= ((uint32_t)~(RTC_CR_FMT | RTC_CR_OSEL | RTC_CR_POL));
 8002266:	6822      	ldr	r2, [r4, #0]
 8002268:	6893      	ldr	r3, [r2, #8]
 800226a:	4914      	ldr	r1, [pc, #80]	@ (80022bc <HAL_RTC_Init+0xa8>)
 800226c:	400b      	ands	r3, r1
 800226e:	6093      	str	r3, [r2, #8]
      hrtc->Instance->CR |= (uint32_t)(hrtc->Init.HourFormat | hrtc->Init.OutPut | hrtc->Init.OutPutPolarity);
 8002270:	6821      	ldr	r1, [r4, #0]
 8002272:	688a      	ldr	r2, [r1, #8]
 8002274:	6863      	ldr	r3, [r4, #4]
 8002276:	6920      	ldr	r0, [r4, #16]
 8002278:	4303      	orrs	r3, r0
 800227a:	69a0      	ldr	r0, [r4, #24]
 800227c:	4303      	orrs	r3, r0
 800227e:	4313      	orrs	r3, r2
 8002280:	608b      	str	r3, [r1, #8]
      hrtc->Instance->PRER = (uint32_t)(hrtc->Init.SynchPrediv);
 8002282:	6823      	ldr	r3, [r4, #0]
 8002284:	68e2      	ldr	r2, [r4, #12]
 8002286:	611a      	str	r2, [r3, #16]
      hrtc->Instance->PRER |= (uint32_t)(hrtc->Init.AsynchPrediv << RTC_PRER_PREDIV_A_Pos);
 8002288:	6821      	ldr	r1, [r4, #0]
 800228a:	690b      	ldr	r3, [r1, #16]
 800228c:	68a2      	ldr	r2, [r4, #8]
 800228e:	0412      	lsls	r2, r2, #16
 8002290:	4313      	orrs	r3, r2
 8002292:	610b      	str	r3, [r1, #16]
      status = RTC_ExitInitMode(hrtc);
 8002294:	0020      	movs	r0, r4
 8002296:	f7ff ffa6 	bl	80021e6 <RTC_ExitInitMode>
    if (status == HAL_OK)
 800229a:	2800      	cmp	r0, #0
 800229c:	d1dd      	bne.n	800225a <HAL_RTC_Init+0x46>
      hrtc->Instance->OR &= (uint32_t)~(RTC_OUTPUT_TYPE_PUSHPULL | RTC_OUTPUT_REMAP_POS1);
 800229e:	6822      	ldr	r2, [r4, #0]
 80022a0:	6cd3      	ldr	r3, [r2, #76]	@ 0x4c
 80022a2:	2103      	movs	r1, #3
 80022a4:	438b      	bics	r3, r1
 80022a6:	64d3      	str	r3, [r2, #76]	@ 0x4c
      hrtc->Instance->OR |= (uint32_t)(hrtc->Init.OutPutType | hrtc->Init.OutPutRemap);
 80022a8:	6821      	ldr	r1, [r4, #0]
 80022aa:	6ccb      	ldr	r3, [r1, #76]	@ 0x4c
 80022ac:	69e2      	ldr	r2, [r4, #28]
 80022ae:	6965      	ldr	r5, [r4, #20]
 80022b0:	432a      	orrs	r2, r5
 80022b2:	4313      	orrs	r3, r2
 80022b4:	64cb      	str	r3, [r1, #76]	@ 0x4c
 80022b6:	e7d0      	b.n	800225a <HAL_RTC_Init+0x46>
    return HAL_ERROR;
 80022b8:	2001      	movs	r0, #1
 80022ba:	e7bd      	b.n	8002238 <HAL_RTC_Init+0x24>
 80022bc:	ff8fffbf 	.word	0xff8fffbf

080022c0 <UART_EndRxTransfer>:
  * @brief  End ongoing Rx transfer on UART peripheral (following error detection or Reception completion).
  * @param  huart UART handle.
  * @retval None
  */
static void UART_EndRxTransfer(UART_HandleTypeDef *huart)
{
 80022c0:	b510      	push	{r4, lr}
 */
__STATIC_FORCEINLINE uint32_t __get_PRIMASK(void)
{
  uint32_t result;

  __ASM volatile ("MRS %0, primask" : "=r" (result) :: "memory");
 80022c2:	f3ef 8c10 	mrs	ip, PRIMASK
  \details Assigns the given value to the Priority Mask Register.
  \param [in]    priMask  Priority Mask
 */
__STATIC_FORCEINLINE void __set_PRIMASK(uint32_t priMask)
{
  __ASM volatile ("MSR primask, %0" : : "r" (priMask) : "memory");
 80022c6:	2201      	movs	r2, #1
 80022c8:	f382 8810 	msr	PRIMASK, r2
  /* Disable RXNE, PE and ERR (Frame error, noise error, overrun error) interrupts */
  ATOMIC_CLEAR_BIT(huart->Instance->CR1, (USART_CR1_RXNEIE | USART_CR1_PEIE));
 80022cc:	6801      	ldr	r1, [r0, #0]
 80022ce:	680b      	ldr	r3, [r1, #0]
 80022d0:	4c12      	ldr	r4, [pc, #72]	@ (800231c <UART_EndRxTransfer+0x5c>)
 80022d2:	4023      	ands	r3, r4
 80022d4:	600b      	str	r3, [r1, #0]
 80022d6:	f38c 8810 	msr	PRIMASK, ip
  __ASM volatile ("MRS %0, primask" : "=r" (result) :: "memory");
 80022da:	f3ef 8c10 	mrs	ip, PRIMASK
  __ASM volatile ("MSR primask, %0" : : "r" (priMask) : "memory");
 80022de:	f382 8810 	msr	PRIMASK, r2
  ATOMIC_CLEAR_BIT(huart->Instance->CR3, USART_CR3_EIE);
 80022e2:	6801      	ldr	r1, [r0, #0]
 80022e4:	688b      	ldr	r3, [r1, #8]
 80022e6:	4393      	bics	r3, r2
 80022e8:	608b      	str	r3, [r1, #8]
 80022ea:	f38c 8810 	msr	PRIMASK, ip

  /* In case of reception waiting for IDLE event, disable also the IDLE IE interrupt source */
  if (huart->ReceptionType == HAL_UART_RECEPTION_TOIDLE)
 80022ee:	6e03      	ldr	r3, [r0, #96]	@ 0x60
 80022f0:	2b01      	cmp	r3, #1
 80022f2:	d006      	beq.n	8002302 <UART_EndRxTransfer+0x42>
  {
    ATOMIC_CLEAR_BIT(huart->Instance->CR1, USART_CR1_IDLEIE);
  }

  /* At end of Rx process, restore huart->RxState to Ready */
  huart->RxState = HAL_UART_STATE_READY;
 80022f4:	2380      	movs	r3, #128	@ 0x80
 80022f6:	2220      	movs	r2, #32
 80022f8:	50c2      	str	r2, [r0, r3]
  huart->ReceptionType = HAL_UART_RECEPTION_STANDARD;
 80022fa:	2300      	movs	r3, #0
 80022fc:	6603      	str	r3, [r0, #96]	@ 0x60

  /* Reset RxIsr function pointer */
  huart->RxISR = NULL;
 80022fe:	6683      	str	r3, [r0, #104]	@ 0x68
}
 8002300:	bd10      	pop	{r4, pc}
  __ASM volatile ("MRS %0, primask" : "=r" (result) :: "memory");
 8002302:	f3ef 8110 	mrs	r1, PRIMASK
  __ASM volatile ("MSR primask, %0" : : "r" (priMask) : "memory");
 8002306:	f383 8810 	msr	PRIMASK, r3
    ATOMIC_CLEAR_BIT(huart->Instance->CR1, USART_CR1_IDLEIE);
 800230a:	6802      	ldr	r2, [r0, #0]
 800230c:	6813      	ldr	r3, [r2, #0]
 800230e:	3432      	adds	r4, #50	@ 0x32
 8002310:	34ff      	adds	r4, #255	@ 0xff
 8002312:	43a3      	bics	r3, r4
 8002314:	6013      	str	r3, [r2, #0]
 8002316:	f381 8810 	msr	PRIMASK, r1
}
 800231a:	e7eb      	b.n	80022f4 <UART_EndRxTransfer+0x34>
 800231c:	fffffedf 	.word	0xfffffedf

08002320 <UART_SetConfig>:
{
 8002320:	b5d0      	push	{r4, r6, r7, lr}
 8002322:	0004      	movs	r4, r0
  if (UART_INSTANCE_LOWPOWER(huart))
 8002324:	6801      	ldr	r1, [r0, #0]
  tmpreg = (uint32_t)huart->Init.WordLength | huart->Init.Parity | huart->Init.Mode | huart->Init.OverSampling ;
 8002326:	6883      	ldr	r3, [r0, #8]
 8002328:	6902      	ldr	r2, [r0, #16]
 800232a:	4313      	orrs	r3, r2
 800232c:	6942      	ldr	r2, [r0, #20]
 800232e:	4313      	orrs	r3, r2
 8002330:	69c2      	ldr	r2, [r0, #28]
 8002332:	4313      	orrs	r3, r2
  MODIFY_REG(huart->Instance->CR1, USART_CR1_FIELDS, tmpreg);
 8002334:	680a      	ldr	r2, [r1, #0]
 8002336:	4884      	ldr	r0, [pc, #528]	@ (8002548 <UART_SetConfig+0x228>)
 8002338:	4002      	ands	r2, r0
 800233a:	4313      	orrs	r3, r2
 800233c:	600b      	str	r3, [r1, #0]
  MODIFY_REG(huart->Instance->CR2, USART_CR2_STOP, huart->Init.StopBits);
 800233e:	6822      	ldr	r2, [r4, #0]
 8002340:	6853      	ldr	r3, [r2, #4]
 8002342:	4982      	ldr	r1, [pc, #520]	@ (800254c <UART_SetConfig+0x22c>)
 8002344:	400b      	ands	r3, r1
 8002346:	68e1      	ldr	r1, [r4, #12]
 8002348:	430b      	orrs	r3, r1
 800234a:	6053      	str	r3, [r2, #4]
  tmpreg = (uint32_t)huart->Init.HwFlowCtl;
 800234c:	69a1      	ldr	r1, [r4, #24]
  if (!(UART_INSTANCE_LOWPOWER(huart)))
 800234e:	6822      	ldr	r2, [r4, #0]
 8002350:	4b7f      	ldr	r3, [pc, #508]	@ (8002550 <UART_SetConfig+0x230>)
 8002352:	429a      	cmp	r2, r3
 8002354:	d001      	beq.n	800235a <UART_SetConfig+0x3a>
    tmpreg |= huart->Init.OneBitSampling;
 8002356:	6a23      	ldr	r3, [r4, #32]
 8002358:	4319      	orrs	r1, r3
  MODIFY_REG(huart->Instance->CR3, USART_CR3_FIELDS, tmpreg);
 800235a:	6893      	ldr	r3, [r2, #8]
 800235c:	487d      	ldr	r0, [pc, #500]	@ (8002554 <UART_SetConfig+0x234>)
 800235e:	4003      	ands	r3, r0
 8002360:	430b      	orrs	r3, r1
 8002362:	6093      	str	r3, [r2, #8]
  UART_GETCLOCKSOURCE(huart, clocksource);
 8002364:	6822      	ldr	r2, [r4, #0]
 8002366:	4b7c      	ldr	r3, [pc, #496]	@ (8002558 <UART_SetConfig+0x238>)
 8002368:	429a      	cmp	r2, r3
 800236a:	d012      	beq.n	8002392 <UART_SetConfig+0x72>
 800236c:	4b78      	ldr	r3, [pc, #480]	@ (8002550 <UART_SetConfig+0x230>)
 800236e:	429a      	cmp	r2, r3
 8002370:	d020      	beq.n	80023b4 <UART_SetConfig+0x94>
 8002372:	2310      	movs	r3, #16
  if (UART_INSTANCE_LOWPOWER(huart))
 8002374:	4976      	ldr	r1, [pc, #472]	@ (8002550 <UART_SetConfig+0x230>)
 8002376:	428a      	cmp	r2, r1
 8002378:	d042      	beq.n	8002400 <UART_SetConfig+0xe0>
  else if (huart->Init.OverSampling == UART_OVERSAMPLING_8)
 800237a:	69e0      	ldr	r0, [r4, #28]
 800237c:	2280      	movs	r2, #128	@ 0x80
 800237e:	0212      	lsls	r2, r2, #8
 8002380:	4290      	cmp	r0, r2
 8002382:	d079      	beq.n	8002478 <UART_SetConfig+0x158>
    switch (clocksource)
 8002384:	2b08      	cmp	r3, #8
 8002386:	d900      	bls.n	800238a <UART_SetConfig+0x6a>
 8002388:	e0d8      	b.n	800253c <UART_SetConfig+0x21c>
 800238a:	009b      	lsls	r3, r3, #2
 800238c:	4a73      	ldr	r2, [pc, #460]	@ (800255c <UART_SetConfig+0x23c>)
 800238e:	58d3      	ldr	r3, [r2, r3]
 8002390:	469f      	mov	pc, r3
  UART_GETCLOCKSOURCE(huart, clocksource);
 8002392:	4b73      	ldr	r3, [pc, #460]	@ (8002560 <UART_SetConfig+0x240>)
 8002394:	6cd9      	ldr	r1, [r3, #76]	@ 0x4c
 8002396:	230c      	movs	r3, #12
 8002398:	400b      	ands	r3, r1
 800239a:	2b08      	cmp	r3, #8
 800239c:	d022      	beq.n	80023e4 <UART_SetConfig+0xc4>
 800239e:	d805      	bhi.n	80023ac <UART_SetConfig+0x8c>
 80023a0:	2b00      	cmp	r3, #0
 80023a2:	d021      	beq.n	80023e8 <UART_SetConfig+0xc8>
 80023a4:	2b04      	cmp	r3, #4
 80023a6:	d0e5      	beq.n	8002374 <UART_SetConfig+0x54>
 80023a8:	2310      	movs	r3, #16
 80023aa:	e7e3      	b.n	8002374 <UART_SetConfig+0x54>
 80023ac:	2b0c      	cmp	r3, #12
 80023ae:	d11d      	bne.n	80023ec <UART_SetConfig+0xcc>
 80023b0:	3b04      	subs	r3, #4
 80023b2:	e7df      	b.n	8002374 <UART_SetConfig+0x54>
 80023b4:	4b6a      	ldr	r3, [pc, #424]	@ (8002560 <UART_SetConfig+0x240>)
 80023b6:	6cdb      	ldr	r3, [r3, #76]	@ 0x4c
 80023b8:	21c0      	movs	r1, #192	@ 0xc0
 80023ba:	0109      	lsls	r1, r1, #4
 80023bc:	400b      	ands	r3, r1
 80023be:	2180      	movs	r1, #128	@ 0x80
 80023c0:	0109      	lsls	r1, r1, #4
 80023c2:	428b      	cmp	r3, r1
 80023c4:	d014      	beq.n	80023f0 <UART_SetConfig+0xd0>
 80023c6:	d807      	bhi.n	80023d8 <UART_SetConfig+0xb8>
 80023c8:	2b00      	cmp	r3, #0
 80023ca:	d013      	beq.n	80023f4 <UART_SetConfig+0xd4>
 80023cc:	2180      	movs	r1, #128	@ 0x80
 80023ce:	00c9      	lsls	r1, r1, #3
 80023d0:	428b      	cmp	r3, r1
 80023d2:	d111      	bne.n	80023f8 <UART_SetConfig+0xd8>
 80023d4:	2304      	movs	r3, #4
 80023d6:	e7cd      	b.n	8002374 <UART_SetConfig+0x54>
 80023d8:	21c0      	movs	r1, #192	@ 0xc0
 80023da:	0109      	lsls	r1, r1, #4
 80023dc:	428b      	cmp	r3, r1
 80023de:	d10d      	bne.n	80023fc <UART_SetConfig+0xdc>
 80023e0:	2308      	movs	r3, #8
 80023e2:	e7c7      	b.n	8002374 <UART_SetConfig+0x54>
 80023e4:	2302      	movs	r3, #2
 80023e6:	e7c5      	b.n	8002374 <UART_SetConfig+0x54>
 80023e8:	2300      	movs	r3, #0
 80023ea:	e7c3      	b.n	8002374 <UART_SetConfig+0x54>
 80023ec:	2310      	movs	r3, #16
 80023ee:	e7c1      	b.n	8002374 <UART_SetConfig+0x54>
 80023f0:	2302      	movs	r3, #2
 80023f2:	e7bf      	b.n	8002374 <UART_SetConfig+0x54>
 80023f4:	2300      	movs	r3, #0
 80023f6:	e7bd      	b.n	8002374 <UART_SetConfig+0x54>
 80023f8:	2310      	movs	r3, #16
 80023fa:	e7bb      	b.n	8002374 <UART_SetConfig+0x54>
 80023fc:	2310      	movs	r3, #16
 80023fe:	e7b9      	b.n	8002374 <UART_SetConfig+0x54>
    switch (clocksource)
 8002400:	2b04      	cmp	r3, #4
 8002402:	d034      	beq.n	800246e <UART_SetConfig+0x14e>
 8002404:	d80b      	bhi.n	800241e <UART_SetConfig+0xfe>
 8002406:	2b00      	cmp	r3, #0
 8002408:	d02b      	beq.n	8002462 <UART_SetConfig+0x142>
 800240a:	2b02      	cmp	r3, #2
 800240c:	d105      	bne.n	800241a <UART_SetConfig+0xfa>
        if (__HAL_RCC_GET_FLAG(RCC_FLAG_HSIDIV) != 0U)
 800240e:	4b54      	ldr	r3, [pc, #336]	@ (8002560 <UART_SetConfig+0x240>)
 8002410:	681b      	ldr	r3, [r3, #0]
 8002412:	06db      	lsls	r3, r3, #27
 8002414:	d42e      	bmi.n	8002474 <UART_SetConfig+0x154>
          pclk = (uint32_t) HSI_VALUE;
 8002416:	4853      	ldr	r0, [pc, #332]	@ (8002564 <UART_SetConfig+0x244>)
 8002418:	e005      	b.n	8002426 <UART_SetConfig+0x106>
    switch (clocksource)
 800241a:	2001      	movs	r0, #1
 800241c:	e06d      	b.n	80024fa <UART_SetConfig+0x1da>
 800241e:	2b08      	cmp	r3, #8
 8002420:	d11d      	bne.n	800245e <UART_SetConfig+0x13e>
 8002422:	2080      	movs	r0, #128	@ 0x80
 8002424:	0200      	lsls	r0, r0, #8
      if ((pclk < (3U * huart->Init.BaudRate)) ||
 8002426:	6862      	ldr	r2, [r4, #4]
 8002428:	0053      	lsls	r3, r2, #1
 800242a:	189b      	adds	r3, r3, r2
 800242c:	4283      	cmp	r3, r0
 800242e:	d900      	bls.n	8002432 <UART_SetConfig+0x112>
 8002430:	e078      	b.n	8002524 <UART_SetConfig+0x204>
          (pclk > (4096U * huart->Init.BaudRate)))
 8002432:	0313      	lsls	r3, r2, #12
      if ((pclk < (3U * huart->Init.BaudRate)) ||
 8002434:	4283      	cmp	r3, r0
 8002436:	d200      	bcs.n	800243a <UART_SetConfig+0x11a>
 8002438:	e076      	b.n	8002528 <UART_SetConfig+0x208>
        usartdiv = (uint32_t)(UART_DIV_LPUART(pclk, huart->Init.BaudRate));
 800243a:	0e07      	lsrs	r7, r0, #24
 800243c:	0206      	lsls	r6, r0, #8
 800243e:	0850      	lsrs	r0, r2, #1
 8002440:	2100      	movs	r1, #0
 8002442:	1980      	adds	r0, r0, r6
 8002444:	4179      	adcs	r1, r7
 8002446:	2300      	movs	r3, #0
 8002448:	f7fd feea 	bl	8000220 <__aeabi_uldivmod>
        if ((usartdiv >= LPUART_BRR_MIN) && (usartdiv <= LPUART_BRR_MAX))
 800244c:	4b46      	ldr	r3, [pc, #280]	@ (8002568 <UART_SetConfig+0x248>)
 800244e:	18c2      	adds	r2, r0, r3
 8002450:	4b46      	ldr	r3, [pc, #280]	@ (800256c <UART_SetConfig+0x24c>)
 8002452:	429a      	cmp	r2, r3
 8002454:	d86a      	bhi.n	800252c <UART_SetConfig+0x20c>
          huart->Instance->BRR = usartdiv;
 8002456:	6823      	ldr	r3, [r4, #0]
 8002458:	60d8      	str	r0, [r3, #12]
 800245a:	2000      	movs	r0, #0
 800245c:	e04d      	b.n	80024fa <UART_SetConfig+0x1da>
    switch (clocksource)
 800245e:	2001      	movs	r0, #1
 8002460:	e04b      	b.n	80024fa <UART_SetConfig+0x1da>
        pclk = HAL_RCC_GetPCLK1Freq();
 8002462:	f7ff fd93 	bl	8001f8c <HAL_RCC_GetPCLK1Freq>
    if (pclk != 0U)
 8002466:	2800      	cmp	r0, #0
 8002468:	d1dd      	bne.n	8002426 <UART_SetConfig+0x106>
 800246a:	2000      	movs	r0, #0
 800246c:	e045      	b.n	80024fa <UART_SetConfig+0x1da>
        pclk = HAL_RCC_GetSysClockFreq();
 800246e:	f7ff f9b5 	bl	80017dc <HAL_RCC_GetSysClockFreq>
        break;
 8002472:	e7f8      	b.n	8002466 <UART_SetConfig+0x146>
          pclk = (uint32_t)(HSI_VALUE >> 2U);
 8002474:	483e      	ldr	r0, [pc, #248]	@ (8002570 <UART_SetConfig+0x250>)
 8002476:	e7d6      	b.n	8002426 <UART_SetConfig+0x106>
    switch (clocksource)
 8002478:	2b08      	cmp	r3, #8
 800247a:	d859      	bhi.n	8002530 <UART_SetConfig+0x210>
 800247c:	009b      	lsls	r3, r3, #2
 800247e:	4a3d      	ldr	r2, [pc, #244]	@ (8002574 <UART_SetConfig+0x254>)
 8002480:	58d3      	ldr	r3, [r2, r3]
 8002482:	469f      	mov	pc, r3
        pclk = HAL_RCC_GetPCLK1Freq();
 8002484:	f7ff fd82 	bl	8001f8c <HAL_RCC_GetPCLK1Freq>
    if (pclk != 0U)
 8002488:	2800      	cmp	r0, #0
 800248a:	d053      	beq.n	8002534 <UART_SetConfig+0x214>
      usartdiv = (uint32_t)(UART_DIV_SAMPLING8(pclk, huart->Init.BaudRate));
 800248c:	0040      	lsls	r0, r0, #1
 800248e:	6861      	ldr	r1, [r4, #4]
 8002490:	084b      	lsrs	r3, r1, #1
 8002492:	18c0      	adds	r0, r0, r3
 8002494:	f7fd fe38 	bl	8000108 <__udivsi3>
      if ((usartdiv >= UART_BRR_MIN) && (usartdiv <= UART_BRR_MAX))
 8002498:	0002      	movs	r2, r0
 800249a:	3a10      	subs	r2, #16
 800249c:	4b36      	ldr	r3, [pc, #216]	@ (8002578 <UART_SetConfig+0x258>)
 800249e:	429a      	cmp	r2, r3
 80024a0:	d84a      	bhi.n	8002538 <UART_SetConfig+0x218>
        brrtemp = (uint16_t)(usartdiv & 0xFFF0U);
 80024a2:	b282      	uxth	r2, r0
 80024a4:	230f      	movs	r3, #15
 80024a6:	439a      	bics	r2, r3
        brrtemp |= (uint16_t)((usartdiv & (uint16_t)0x000FU) >> 1U);
 80024a8:	0840      	lsrs	r0, r0, #1
 80024aa:	3b08      	subs	r3, #8
 80024ac:	4003      	ands	r3, r0
 80024ae:	4313      	orrs	r3, r2
        huart->Instance->BRR = brrtemp;
 80024b0:	6822      	ldr	r2, [r4, #0]
 80024b2:	60d3      	str	r3, [r2, #12]
 80024b4:	2000      	movs	r0, #0
 80024b6:	e020      	b.n	80024fa <UART_SetConfig+0x1da>
        pclk = HAL_RCC_GetPCLK2Freq();
 80024b8:	f7ff fd78 	bl	8001fac <HAL_RCC_GetPCLK2Freq>
        break;
 80024bc:	e7e4      	b.n	8002488 <UART_SetConfig+0x168>
        if (__HAL_RCC_GET_FLAG(RCC_FLAG_HSIDIV) != 0U)
 80024be:	4b28      	ldr	r3, [pc, #160]	@ (8002560 <UART_SetConfig+0x240>)
 80024c0:	681b      	ldr	r3, [r3, #0]
 80024c2:	06db      	lsls	r3, r3, #27
 80024c4:	d404      	bmi.n	80024d0 <UART_SetConfig+0x1b0>
          pclk = (uint32_t) HSI_VALUE;
 80024c6:	4827      	ldr	r0, [pc, #156]	@ (8002564 <UART_SetConfig+0x244>)
 80024c8:	e7e0      	b.n	800248c <UART_SetConfig+0x16c>
        pclk = HAL_RCC_GetSysClockFreq();
 80024ca:	f7ff f987 	bl	80017dc <HAL_RCC_GetSysClockFreq>
        break;
 80024ce:	e7db      	b.n	8002488 <UART_SetConfig+0x168>
          pclk = (uint32_t)(HSI_VALUE >> 2U);
 80024d0:	4827      	ldr	r0, [pc, #156]	@ (8002570 <UART_SetConfig+0x250>)
 80024d2:	e7db      	b.n	800248c <UART_SetConfig+0x16c>
        pclk = HAL_RCC_GetPCLK1Freq();
 80024d4:	f7ff fd5a 	bl	8001f8c <HAL_RCC_GetPCLK1Freq>
    if (pclk != 0U)
 80024d8:	2800      	cmp	r0, #0
 80024da:	d031      	beq.n	8002540 <UART_SetConfig+0x220>
      usartdiv = (uint32_t)(UART_DIV_SAMPLING16(pclk, huart->Init.BaudRate));
 80024dc:	6861      	ldr	r1, [r4, #4]
 80024de:	084b      	lsrs	r3, r1, #1
 80024e0:	1818      	adds	r0, r3, r0
 80024e2:	f7fd fe11 	bl	8000108 <__udivsi3>
      if ((usartdiv >= UART_BRR_MIN) && (usartdiv <= UART_BRR_MAX))
 80024e6:	0002      	movs	r2, r0
 80024e8:	3a10      	subs	r2, #16
 80024ea:	4b23      	ldr	r3, [pc, #140]	@ (8002578 <UART_SetConfig+0x258>)
 80024ec:	429a      	cmp	r2, r3
 80024ee:	d829      	bhi.n	8002544 <UART_SetConfig+0x224>
        huart->Instance->BRR = (uint16_t)usartdiv;
 80024f0:	6823      	ldr	r3, [r4, #0]
 80024f2:	0400      	lsls	r0, r0, #16
 80024f4:	0c00      	lsrs	r0, r0, #16
 80024f6:	60d8      	str	r0, [r3, #12]
 80024f8:	2000      	movs	r0, #0
  huart->RxISR = NULL;
 80024fa:	2300      	movs	r3, #0
 80024fc:	66a3      	str	r3, [r4, #104]	@ 0x68
  huart->TxISR = NULL;
 80024fe:	66e3      	str	r3, [r4, #108]	@ 0x6c
}
 8002500:	bdd0      	pop	{r4, r6, r7, pc}
        pclk = HAL_RCC_GetPCLK2Freq();
 8002502:	f7ff fd53 	bl	8001fac <HAL_RCC_GetPCLK2Freq>
        break;
 8002506:	e7e7      	b.n	80024d8 <UART_SetConfig+0x1b8>
        if (__HAL_RCC_GET_FLAG(RCC_FLAG_HSIDIV) != 0U)
 8002508:	4b15      	ldr	r3, [pc, #84]	@ (8002560 <UART_SetConfig+0x240>)
 800250a:	681b      	ldr	r3, [r3, #0]
 800250c:	06db      	lsls	r3, r3, #27
 800250e:	d407      	bmi.n	8002520 <UART_SetConfig+0x200>
          pclk = (uint32_t) HSI_VALUE;
 8002510:	4814      	ldr	r0, [pc, #80]	@ (8002564 <UART_SetConfig+0x244>)
 8002512:	e7e3      	b.n	80024dc <UART_SetConfig+0x1bc>
        pclk = HAL_RCC_GetSysClockFreq();
 8002514:	f7ff f962 	bl	80017dc <HAL_RCC_GetSysClockFreq>
        break;
 8002518:	e7de      	b.n	80024d8 <UART_SetConfig+0x1b8>
    switch (clocksource)
 800251a:	2080      	movs	r0, #128	@ 0x80
 800251c:	0200      	lsls	r0, r0, #8
 800251e:	e7dd      	b.n	80024dc <UART_SetConfig+0x1bc>
          pclk = (uint32_t)(HSI_VALUE >> 2U);
 8002520:	4813      	ldr	r0, [pc, #76]	@ (8002570 <UART_SetConfig+0x250>)
 8002522:	e7db      	b.n	80024dc <UART_SetConfig+0x1bc>
        ret = HAL_ERROR;
 8002524:	2001      	movs	r0, #1
 8002526:	e7e8      	b.n	80024fa <UART_SetConfig+0x1da>
 8002528:	2001      	movs	r0, #1
 800252a:	e7e6      	b.n	80024fa <UART_SetConfig+0x1da>
          ret = HAL_ERROR;
 800252c:	2001      	movs	r0, #1
 800252e:	e7e4      	b.n	80024fa <UART_SetConfig+0x1da>
    switch (clocksource)
 8002530:	2001      	movs	r0, #1
 8002532:	e7e2      	b.n	80024fa <UART_SetConfig+0x1da>
 8002534:	2000      	movs	r0, #0
 8002536:	e7e0      	b.n	80024fa <UART_SetConfig+0x1da>
        ret = HAL_ERROR;
 8002538:	2001      	movs	r0, #1
 800253a:	e7de      	b.n	80024fa <UART_SetConfig+0x1da>
    switch (clocksource)
 800253c:	2001      	movs	r0, #1
 800253e:	e7dc      	b.n	80024fa <UART_SetConfig+0x1da>
 8002540:	2000      	movs	r0, #0
 8002542:	e7da      	b.n	80024fa <UART_SetConfig+0x1da>
        ret = HAL_ERROR;
 8002544:	2001      	movs	r0, #1
 8002546:	e7d8      	b.n	80024fa <UART_SetConfig+0x1da>
 8002548:	efff69f3 	.word	0xefff69f3
 800254c:	ffffcfff 	.word	0xffffcfff
 8002550:	40004800 	.word	0x40004800
 8002554:	fffff4ff 	.word	0xfffff4ff
 8002558:	40004400 	.word	0x40004400
 800255c:	080028c4 	.word	0x080028c4
 8002560:	40021000 	.word	0x40021000
 8002564:	00f42400 	.word	0x00f42400
 8002568:	fffffd00 	.word	0xfffffd00
 800256c:	000ffcff 	.word	0x000ffcff
 8002570:	003d0900 	.word	0x003d0900
 8002574:	080028e8 	.word	0x080028e8
 8002578:	0000ffef 	.word	0x0000ffef

0800257c <UART_AdvFeatureConfig>:
  if (HAL_IS_BIT_SET(huart->AdvancedInit.AdvFeatureInit, UART_ADVFEATURE_TXINVERT_INIT))
 800257c:	6a43      	ldr	r3, [r0, #36]	@ 0x24
 800257e:	07db      	lsls	r3, r3, #31
 8002580:	d506      	bpl.n	8002590 <UART_AdvFeatureConfig+0x14>
    MODIFY_REG(huart->Instance->CR2, USART_CR2_TXINV, huart->AdvancedInit.TxPinLevelInvert);
 8002582:	6802      	ldr	r2, [r0, #0]
 8002584:	6853      	ldr	r3, [r2, #4]
 8002586:	492c      	ldr	r1, [pc, #176]	@ (8002638 <UART_AdvFeatureConfig+0xbc>)
 8002588:	400b      	ands	r3, r1
 800258a:	6a81      	ldr	r1, [r0, #40]	@ 0x28
 800258c:	430b      	orrs	r3, r1
 800258e:	6053      	str	r3, [r2, #4]
  if (HAL_IS_BIT_SET(huart->AdvancedInit.AdvFeatureInit, UART_ADVFEATURE_RXINVERT_INIT))
 8002590:	6a43      	ldr	r3, [r0, #36]	@ 0x24
 8002592:	079b      	lsls	r3, r3, #30
 8002594:	d506      	bpl.n	80025a4 <UART_AdvFeatureConfig+0x28>
    MODIFY_REG(huart->Instance->CR2, USART_CR2_RXINV, huart->AdvancedInit.RxPinLevelInvert);
 8002596:	6802      	ldr	r2, [r0, #0]
 8002598:	6853      	ldr	r3, [r2, #4]
 800259a:	4928      	ldr	r1, [pc, #160]	@ (800263c <UART_AdvFeatureConfig+0xc0>)
 800259c:	400b      	ands	r3, r1
 800259e:	6ac1      	ldr	r1, [r0, #44]	@ 0x2c
 80025a0:	430b      	orrs	r3, r1
 80025a2:	6053      	str	r3, [r2, #4]
  if (HAL_IS_BIT_SET(huart->AdvancedInit.AdvFeatureInit, UART_ADVFEATURE_DATAINVERT_INIT))
 80025a4:	6a43      	ldr	r3, [r0, #36]	@ 0x24
 80025a6:	075b      	lsls	r3, r3, #29
 80025a8:	d506      	bpl.n	80025b8 <UART_AdvFeatureConfig+0x3c>
    MODIFY_REG(huart->Instance->CR2, USART_CR2_DATAINV, huart->AdvancedInit.DataInvert);
 80025aa:	6802      	ldr	r2, [r0, #0]
 80025ac:	6853      	ldr	r3, [r2, #4]
 80025ae:	4924      	ldr	r1, [pc, #144]	@ (8002640 <UART_AdvFeatureConfig+0xc4>)
 80025b0:	400b      	ands	r3, r1
 80025b2:	6b01      	ldr	r1, [r0, #48]	@ 0x30
 80025b4:	430b      	orrs	r3, r1
 80025b6:	6053      	str	r3, [r2, #4]
  if (HAL_IS_BIT_SET(huart->AdvancedInit.AdvFeatureInit, UART_ADVFEATURE_SWAP_INIT))
 80025b8:	6a43      	ldr	r3, [r0, #36]	@ 0x24
 80025ba:	071b      	lsls	r3, r3, #28
 80025bc:	d506      	bpl.n	80025cc <UART_AdvFeatureConfig+0x50>
    MODIFY_REG(huart->Instance->CR2, USART_CR2_SWAP, huart->AdvancedInit.Swap);
 80025be:	6802      	ldr	r2, [r0, #0]
 80025c0:	6853      	ldr	r3, [r2, #4]
 80025c2:	4920      	ldr	r1, [pc, #128]	@ (8002644 <UART_AdvFeatureConfig+0xc8>)
 80025c4:	400b      	ands	r3, r1
 80025c6:	6b41      	ldr	r1, [r0, #52]	@ 0x34
 80025c8:	430b      	orrs	r3, r1
 80025ca:	6053      	str	r3, [r2, #4]
  if (HAL_IS_BIT_SET(huart->AdvancedInit.AdvFeatureInit, UART_ADVFEATURE_RXOVERRUNDISABLE_INIT))
 80025cc:	6a43      	ldr	r3, [r0, #36]	@ 0x24
 80025ce:	06db      	lsls	r3, r3, #27
 80025d0:	d506      	bpl.n	80025e0 <UART_AdvFeatureConfig+0x64>
    MODIFY_REG(huart->Instance->CR3, USART_CR3_OVRDIS, huart->AdvancedInit.OverrunDisable);
 80025d2:	6802      	ldr	r2, [r0, #0]
 80025d4:	6893      	ldr	r3, [r2, #8]
 80025d6:	491c      	ldr	r1, [pc, #112]	@ (8002648 <UART_AdvFeatureConfig+0xcc>)
 80025d8:	400b      	ands	r3, r1
 80025da:	6b81      	ldr	r1, [r0, #56]	@ 0x38
 80025dc:	430b      	orrs	r3, r1
 80025de:	6093      	str	r3, [r2, #8]
  if (HAL_IS_BIT_SET(huart->AdvancedInit.AdvFeatureInit, UART_ADVFEATURE_DMADISABLEONERROR_INIT))
 80025e0:	6a43      	ldr	r3, [r0, #36]	@ 0x24
 80025e2:	069b      	lsls	r3, r3, #26
 80025e4:	d506      	bpl.n	80025f4 <UART_AdvFeatureConfig+0x78>
    MODIFY_REG(huart->Instance->CR3, USART_CR3_DDRE, huart->AdvancedInit.DMADisableonRxError);
 80025e6:	6802      	ldr	r2, [r0, #0]
 80025e8:	6893      	ldr	r3, [r2, #8]
 80025ea:	4918      	ldr	r1, [pc, #96]	@ (800264c <UART_AdvFeatureConfig+0xd0>)
 80025ec:	400b      	ands	r3, r1
 80025ee:	6bc1      	ldr	r1, [r0, #60]	@ 0x3c
 80025f0:	430b      	orrs	r3, r1
 80025f2:	6093      	str	r3, [r2, #8]
  if (HAL_IS_BIT_SET(huart->AdvancedInit.AdvFeatureInit, UART_ADVFEATURE_AUTOBAUDRATE_INIT))
 80025f4:	6a43      	ldr	r3, [r0, #36]	@ 0x24
 80025f6:	065b      	lsls	r3, r3, #25
 80025f8:	d50b      	bpl.n	8002612 <UART_AdvFeatureConfig+0x96>
    MODIFY_REG(huart->Instance->CR2, USART_CR2_ABREN, huart->AdvancedInit.AutoBaudRateEnable);
 80025fa:	6802      	ldr	r2, [r0, #0]
 80025fc:	6853      	ldr	r3, [r2, #4]
 80025fe:	4914      	ldr	r1, [pc, #80]	@ (8002650 <UART_AdvFeatureConfig+0xd4>)
 8002600:	400b      	ands	r3, r1
 8002602:	6c01      	ldr	r1, [r0, #64]	@ 0x40
 8002604:	430b      	orrs	r3, r1
 8002606:	6053      	str	r3, [r2, #4]
    if (huart->AdvancedInit.AutoBaudRateEnable == UART_ADVFEATURE_AUTOBAUDRATE_ENABLE)
 8002608:	6c02      	ldr	r2, [r0, #64]	@ 0x40
 800260a:	2380      	movs	r3, #128	@ 0x80
 800260c:	035b      	lsls	r3, r3, #13
 800260e:	429a      	cmp	r2, r3
 8002610:	d00a      	beq.n	8002628 <UART_AdvFeatureConfig+0xac>
  if (HAL_IS_BIT_SET(huart->AdvancedInit.AdvFeatureInit, UART_ADVFEATURE_MSBFIRST_INIT))
 8002612:	6a43      	ldr	r3, [r0, #36]	@ 0x24
 8002614:	061b      	lsls	r3, r3, #24
 8002616:	d506      	bpl.n	8002626 <UART_AdvFeatureConfig+0xaa>
    MODIFY_REG(huart->Instance->CR2, USART_CR2_MSBFIRST, huart->AdvancedInit.MSBFirst);
 8002618:	6802      	ldr	r2, [r0, #0]
 800261a:	6853      	ldr	r3, [r2, #4]
 800261c:	490d      	ldr	r1, [pc, #52]	@ (8002654 <UART_AdvFeatureConfig+0xd8>)
 800261e:	400b      	ands	r3, r1
 8002620:	6c81      	ldr	r1, [r0, #72]	@ 0x48
 8002622:	430b      	orrs	r3, r1
 8002624:	6053      	str	r3, [r2, #4]
}
 8002626:	4770      	bx	lr
      MODIFY_REG(huart->Instance->CR2, USART_CR2_ABRMODE, huart->AdvancedInit.AutoBaudRateMode);
 8002628:	6802      	ldr	r2, [r0, #0]
 800262a:	6853      	ldr	r3, [r2, #4]
 800262c:	490a      	ldr	r1, [pc, #40]	@ (8002658 <UART_AdvFeatureConfig+0xdc>)
 800262e:	400b      	ands	r3, r1
 8002630:	6c41      	ldr	r1, [r0, #68]	@ 0x44
 8002632:	430b      	orrs	r3, r1
 8002634:	6053      	str	r3, [r2, #4]
 8002636:	e7ec      	b.n	8002612 <UART_AdvFeatureConfig+0x96>
 8002638:	fffdffff 	.word	0xfffdffff
 800263c:	fffeffff 	.word	0xfffeffff
 8002640:	fffbffff 	.word	0xfffbffff
 8002644:	ffff7fff 	.word	0xffff7fff
 8002648:	ffffefff 	.word	0xffffefff
 800264c:	ffffdfff 	.word	0xffffdfff
 8002650:	ffefffff 	.word	0xffefffff
 8002654:	fff7ffff 	.word	0xfff7ffff
 8002658:	ff9fffff 	.word	0xff9fffff

0800265c <UART_WaitOnFlagUntilTimeout>:
{
 800265c:	b5f8      	push	{r3, r4, r5, r6, r7, lr}
 800265e:	46ce      	mov	lr, r9
 8002660:	4647      	mov	r7, r8
 8002662:	b580      	push	{r7, lr}
 8002664:	0006      	movs	r6, r0
 8002666:	000d      	movs	r5, r1
 8002668:	0017      	movs	r7, r2
 800266a:	4699      	mov	r9, r3
 800266c:	9b08      	ldr	r3, [sp, #32]
 800266e:	4698      	mov	r8, r3
  while ((__HAL_UART_GET_FLAG(huart, Flag) ? SET : RESET) == Status)
 8002670:	6833      	ldr	r3, [r6, #0]
 8002672:	69dc      	ldr	r4, [r3, #28]
 8002674:	402c      	ands	r4, r5
 8002676:	1b64      	subs	r4, r4, r5
 8002678:	4263      	negs	r3, r4
 800267a:	415c      	adcs	r4, r3
 800267c:	42bc      	cmp	r4, r7
 800267e:	d12f      	bne.n	80026e0 <UART_WaitOnFlagUntilTimeout+0x84>
    if (Timeout != HAL_MAX_DELAY)
 8002680:	4643      	mov	r3, r8
 8002682:	3301      	adds	r3, #1
 8002684:	d0f4      	beq.n	8002670 <UART_WaitOnFlagUntilTimeout+0x14>
      if (((HAL_GetTick() - Tickstart) > Timeout) || (Timeout == 0U))
 8002686:	f7fe fba7 	bl	8000dd8 <HAL_GetTick>
 800268a:	464b      	mov	r3, r9
 800268c:	1ac0      	subs	r0, r0, r3
 800268e:	4540      	cmp	r0, r8
 8002690:	d82b      	bhi.n	80026ea <UART_WaitOnFlagUntilTimeout+0x8e>
 8002692:	4643      	mov	r3, r8
 8002694:	2b00      	cmp	r3, #0
 8002696:	d02a      	beq.n	80026ee <UART_WaitOnFlagUntilTimeout+0x92>
      if (READ_BIT(huart->Instance->CR1, USART_CR1_RE) != 0U)
 8002698:	6833      	ldr	r3, [r6, #0]
 800269a:	681a      	ldr	r2, [r3, #0]
 800269c:	0752      	lsls	r2, r2, #29
 800269e:	d5e7      	bpl.n	8002670 <UART_WaitOnFlagUntilTimeout+0x14>
        if (__HAL_UART_GET_FLAG(huart, UART_FLAG_ORE) == SET)
 80026a0:	69da      	ldr	r2, [r3, #28]
 80026a2:	0712      	lsls	r2, r2, #28
 80026a4:	d410      	bmi.n	80026c8 <UART_WaitOnFlagUntilTimeout+0x6c>
        if (__HAL_UART_GET_FLAG(huart, UART_FLAG_RTOF) == SET)
 80026a6:	69da      	ldr	r2, [r3, #28]
 80026a8:	0512      	lsls	r2, r2, #20
 80026aa:	d5e1      	bpl.n	8002670 <UART_WaitOnFlagUntilTimeout+0x14>
          __HAL_UART_CLEAR_FLAG(huart, UART_CLEAR_RTOF);
 80026ac:	2280      	movs	r2, #128	@ 0x80
 80026ae:	0112      	lsls	r2, r2, #4
 80026b0:	621a      	str	r2, [r3, #32]
          UART_EndRxTransfer(huart);
 80026b2:	0030      	movs	r0, r6
 80026b4:	f7ff fe04 	bl	80022c0 <UART_EndRxTransfer>
          huart->ErrorCode = HAL_UART_ERROR_RTO;
 80026b8:	2384      	movs	r3, #132	@ 0x84
 80026ba:	2220      	movs	r2, #32
 80026bc:	50f2      	str	r2, [r6, r3]
          __HAL_UNLOCK(huart);
 80026be:	3b0c      	subs	r3, #12
 80026c0:	2200      	movs	r2, #0
 80026c2:	54f2      	strb	r2, [r6, r3]
          return HAL_TIMEOUT;
 80026c4:	2003      	movs	r0, #3
 80026c6:	e00c      	b.n	80026e2 <UART_WaitOnFlagUntilTimeout+0x86>
           __HAL_UART_CLEAR_FLAG(huart, UART_CLEAR_OREF);
 80026c8:	2408      	movs	r4, #8
 80026ca:	621c      	str	r4, [r3, #32]
           UART_EndRxTransfer(huart);
 80026cc:	0030      	movs	r0, r6
 80026ce:	f7ff fdf7 	bl	80022c0 <UART_EndRxTransfer>
           huart->ErrorCode = HAL_UART_ERROR_ORE;
 80026d2:	2384      	movs	r3, #132	@ 0x84
 80026d4:	50f4      	str	r4, [r6, r3]
           __HAL_UNLOCK(huart);
 80026d6:	3b0c      	subs	r3, #12
 80026d8:	2200      	movs	r2, #0
 80026da:	54f2      	strb	r2, [r6, r3]
           return HAL_ERROR;
 80026dc:	2001      	movs	r0, #1
 80026de:	e000      	b.n	80026e2 <UART_WaitOnFlagUntilTimeout+0x86>
  return HAL_OK;
 80026e0:	2000      	movs	r0, #0
}
 80026e2:	bcc0      	pop	{r6, r7}
 80026e4:	46b9      	mov	r9, r7
 80026e6:	46b0      	mov	r8, r6
 80026e8:	bdf8      	pop	{r3, r4, r5, r6, r7, pc}
        return HAL_TIMEOUT;
 80026ea:	2003      	movs	r0, #3
 80026ec:	e7f9      	b.n	80026e2 <UART_WaitOnFlagUntilTimeout+0x86>
 80026ee:	2003      	movs	r0, #3
 80026f0:	e7f7      	b.n	80026e2 <UART_WaitOnFlagUntilTimeout+0x86>
	...

080026f4 <UART_CheckIdleState>:
{
 80026f4:	b530      	push	{r4, r5, lr}
 80026f6:	b083      	sub	sp, #12
 80026f8:	0004      	movs	r4, r0
  huart->ErrorCode = HAL_UART_ERROR_NONE;
 80026fa:	2384      	movs	r3, #132	@ 0x84
 80026fc:	2200      	movs	r2, #0
 80026fe:	50c2      	str	r2, [r0, r3]
  tickstart = HAL_GetTick();
 8002700:	f7fe fb6a 	bl	8000dd8 <HAL_GetTick>
 8002704:	0005      	movs	r5, r0
  if ((huart->Instance->CR1 & USART_CR1_TE) == USART_CR1_TE)
 8002706:	6823      	ldr	r3, [r4, #0]
 8002708:	681b      	ldr	r3, [r3, #0]
 800270a:	071b      	lsls	r3, r3, #28
 800270c:	d40f      	bmi.n	800272e <UART_CheckIdleState+0x3a>
  if ((huart->Instance->CR1 & USART_CR1_RE) == USART_CR1_RE)
 800270e:	6823      	ldr	r3, [r4, #0]
 8002710:	681b      	ldr	r3, [r3, #0]
 8002712:	075b      	lsls	r3, r3, #29
 8002714:	d429      	bmi.n	800276a <UART_CheckIdleState+0x76>
  huart->gState = HAL_UART_STATE_READY;
 8002716:	2320      	movs	r3, #32
 8002718:	67e3      	str	r3, [r4, #124]	@ 0x7c
  huart->RxState = HAL_UART_STATE_READY;
 800271a:	2280      	movs	r2, #128	@ 0x80
 800271c:	50a3      	str	r3, [r4, r2]
  huart->ReceptionType = HAL_UART_RECEPTION_STANDARD;
 800271e:	2300      	movs	r3, #0
 8002720:	6623      	str	r3, [r4, #96]	@ 0x60
  huart->RxEventType = HAL_UART_RXEVENT_TC;
 8002722:	6663      	str	r3, [r4, #100]	@ 0x64
  __HAL_UNLOCK(huart);
 8002724:	3a08      	subs	r2, #8
 8002726:	54a3      	strb	r3, [r4, r2]
  return HAL_OK;
 8002728:	2000      	movs	r0, #0
}
 800272a:	b003      	add	sp, #12
 800272c:	bd30      	pop	{r4, r5, pc}
    if (UART_WaitOnFlagUntilTimeout(huart, USART_ISR_TEACK, RESET, tickstart, HAL_UART_TIMEOUT_VALUE) != HAL_OK)
 800272e:	2180      	movs	r1, #128	@ 0x80
 8002730:	4b22      	ldr	r3, [pc, #136]	@ (80027bc <UART_CheckIdleState+0xc8>)
 8002732:	9300      	str	r3, [sp, #0]
 8002734:	0003      	movs	r3, r0
 8002736:	2200      	movs	r2, #0
 8002738:	0389      	lsls	r1, r1, #14
 800273a:	0020      	movs	r0, r4
 800273c:	f7ff ff8e 	bl	800265c <UART_WaitOnFlagUntilTimeout>
 8002740:	2800      	cmp	r0, #0
 8002742:	d0e4      	beq.n	800270e <UART_CheckIdleState+0x1a>
  __ASM volatile ("MRS %0, primask" : "=r" (result) :: "memory");
 8002744:	f3ef 8110 	mrs	r1, PRIMASK
  __ASM volatile ("MSR primask, %0" : : "r" (priMask) : "memory");
 8002748:	2301      	movs	r3, #1
 800274a:	f383 8810 	msr	PRIMASK, r3
      ATOMIC_CLEAR_BIT(huart->Instance->CR1, (USART_CR1_TXEIE));
 800274e:	6822      	ldr	r2, [r4, #0]
 8002750:	6813      	ldr	r3, [r2, #0]
 8002752:	2080      	movs	r0, #128	@ 0x80
 8002754:	4383      	bics	r3, r0
 8002756:	6013      	str	r3, [r2, #0]
 8002758:	f381 8810 	msr	PRIMASK, r1
      huart->gState = HAL_UART_STATE_READY;
 800275c:	2320      	movs	r3, #32
 800275e:	67e3      	str	r3, [r4, #124]	@ 0x7c
      __HAL_UNLOCK(huart);
 8002760:	3358      	adds	r3, #88	@ 0x58
 8002762:	2200      	movs	r2, #0
 8002764:	54e2      	strb	r2, [r4, r3]
      return HAL_TIMEOUT;
 8002766:	387d      	subs	r0, #125	@ 0x7d
 8002768:	e7df      	b.n	800272a <UART_CheckIdleState+0x36>
    if (UART_WaitOnFlagUntilTimeout(huart, USART_ISR_REACK, RESET, tickstart, HAL_UART_TIMEOUT_VALUE) != HAL_OK)
 800276a:	2180      	movs	r1, #128	@ 0x80
 800276c:	4b13      	ldr	r3, [pc, #76]	@ (80027bc <UART_CheckIdleState+0xc8>)
 800276e:	9300      	str	r3, [sp, #0]
 8002770:	002b      	movs	r3, r5
 8002772:	2200      	movs	r2, #0
 8002774:	03c9      	lsls	r1, r1, #15
 8002776:	0020      	movs	r0, r4
 8002778:	f7ff ff70 	bl	800265c <UART_WaitOnFlagUntilTimeout>
 800277c:	2800      	cmp	r0, #0
 800277e:	d0ca      	beq.n	8002716 <UART_CheckIdleState+0x22>
  __ASM volatile ("MRS %0, primask" : "=r" (result) :: "memory");
 8002780:	f3ef 8010 	mrs	r0, PRIMASK
  __ASM volatile ("MSR primask, %0" : : "r" (priMask) : "memory");
 8002784:	2201      	movs	r2, #1
 8002786:	f382 8810 	msr	PRIMASK, r2
      ATOMIC_CLEAR_BIT(huart->Instance->CR1, (USART_CR1_RXNEIE | USART_CR1_PEIE));
 800278a:	6821      	ldr	r1, [r4, #0]
 800278c:	680b      	ldr	r3, [r1, #0]
 800278e:	4d0c      	ldr	r5, [pc, #48]	@ (80027c0 <UART_CheckIdleState+0xcc>)
 8002790:	402b      	ands	r3, r5
 8002792:	600b      	str	r3, [r1, #0]
 8002794:	f380 8810 	msr	PRIMASK, r0
  __ASM volatile ("MRS %0, primask" : "=r" (result) :: "memory");
 8002798:	f3ef 8010 	mrs	r0, PRIMASK
  __ASM volatile ("MSR primask, %0" : : "r" (priMask) : "memory");
 800279c:	f382 8810 	msr	PRIMASK, r2
      ATOMIC_CLEAR_BIT(huart->Instance->CR3, USART_CR3_EIE);
 80027a0:	6821      	ldr	r1, [r4, #0]
 80027a2:	688b      	ldr	r3, [r1, #8]
 80027a4:	4393      	bics	r3, r2
 80027a6:	608b      	str	r3, [r1, #8]
 80027a8:	f380 8810 	msr	PRIMASK, r0
      huart->RxState = HAL_UART_STATE_READY;
 80027ac:	2380      	movs	r3, #128	@ 0x80
 80027ae:	321f      	adds	r2, #31
 80027b0:	50e2      	str	r2, [r4, r3]
      __HAL_UNLOCK(huart);
 80027b2:	3b08      	subs	r3, #8
 80027b4:	2200      	movs	r2, #0
 80027b6:	54e2      	strb	r2, [r4, r3]
      return HAL_TIMEOUT;
 80027b8:	2003      	movs	r0, #3
 80027ba:	e7b6      	b.n	800272a <UART_CheckIdleState+0x36>
 80027bc:	01ffffff 	.word	0x01ffffff
 80027c0:	fffffedf 	.word	0xfffffedf

080027c4 <HAL_UART_Init>:
{
 80027c4:	b510      	push	{r4, lr}
 80027c6:	1e04      	subs	r4, r0, #0
  if (huart == NULL)
 80027c8:	d02e      	beq.n	8002828 <HAL_UART_Init+0x64>
  if (huart->gState == HAL_UART_STATE_RESET)
 80027ca:	6fc3      	ldr	r3, [r0, #124]	@ 0x7c
 80027cc:	2b00      	cmp	r3, #0
 80027ce:	d021      	beq.n	8002814 <HAL_UART_Init+0x50>
  huart->gState = HAL_UART_STATE_BUSY;
 80027d0:	2324      	movs	r3, #36	@ 0x24
 80027d2:	67e3      	str	r3, [r4, #124]	@ 0x7c
  __HAL_UART_DISABLE(huart);
 80027d4:	6822      	ldr	r2, [r4, #0]
 80027d6:	6813      	ldr	r3, [r2, #0]
 80027d8:	2101      	movs	r1, #1
 80027da:	438b      	bics	r3, r1
 80027dc:	6013      	str	r3, [r2, #0]
  if (UART_SetConfig(huart) == HAL_ERROR)
 80027de:	0020      	movs	r0, r4
 80027e0:	f7ff fd9e 	bl	8002320 <UART_SetConfig>
 80027e4:	2801      	cmp	r0, #1
 80027e6:	d014      	beq.n	8002812 <HAL_UART_Init+0x4e>
  if (huart->AdvancedInit.AdvFeatureInit != UART_ADVFEATURE_NO_INIT)
 80027e8:	6a63      	ldr	r3, [r4, #36]	@ 0x24
 80027ea:	2b00      	cmp	r3, #0
 80027ec:	d118      	bne.n	8002820 <HAL_UART_Init+0x5c>
  CLEAR_BIT(huart->Instance->CR2, (USART_CR2_LINEN | USART_CR2_CLKEN));
 80027ee:	6822      	ldr	r2, [r4, #0]
 80027f0:	6853      	ldr	r3, [r2, #4]
 80027f2:	490e      	ldr	r1, [pc, #56]	@ (800282c <HAL_UART_Init+0x68>)
 80027f4:	400b      	ands	r3, r1
 80027f6:	6053      	str	r3, [r2, #4]
  CLEAR_BIT(huart->Instance->CR3, (USART_CR3_SCEN | USART_CR3_HDSEL | USART_CR3_IREN));
 80027f8:	6822      	ldr	r2, [r4, #0]
 80027fa:	6893      	ldr	r3, [r2, #8]
 80027fc:	212a      	movs	r1, #42	@ 0x2a
 80027fe:	438b      	bics	r3, r1
 8002800:	6093      	str	r3, [r2, #8]
  __HAL_UART_ENABLE(huart);
 8002802:	6822      	ldr	r2, [r4, #0]
 8002804:	6813      	ldr	r3, [r2, #0]
 8002806:	3929      	subs	r1, #41	@ 0x29
 8002808:	430b      	orrs	r3, r1
 800280a:	6013      	str	r3, [r2, #0]
  return (UART_CheckIdleState(huart));
 800280c:	0020      	movs	r0, r4
 800280e:	f7ff ff71 	bl	80026f4 <UART_CheckIdleState>
}
 8002812:	bd10      	pop	{r4, pc}
    huart->Lock = HAL_UNLOCKED;
 8002814:	3378      	adds	r3, #120	@ 0x78
 8002816:	2200      	movs	r2, #0
 8002818:	54c2      	strb	r2, [r0, r3]
    HAL_UART_MspInit(huart);
 800281a:	f7fe f8db 	bl	80009d4 <HAL_UART_MspInit>
 800281e:	e7d7      	b.n	80027d0 <HAL_UART_Init+0xc>
    UART_AdvFeatureConfig(huart);
 8002820:	0020      	movs	r0, r4
 8002822:	f7ff feab 	bl	800257c <UART_AdvFeatureConfig>
 8002826:	e7e2      	b.n	80027ee <HAL_UART_Init+0x2a>
    return HAL_ERROR;
 8002828:	2001      	movs	r0, #1
 800282a:	e7f2      	b.n	8002812 <HAL_UART_Init+0x4e>
 800282c:	ffffb7ff 	.word	0xffffb7ff

08002830 <memset>:
 8002830:	0003      	movs	r3, r0
 8002832:	1882      	adds	r2, r0, r2
 8002834:	4293      	cmp	r3, r2
 8002836:	d100      	bne.n	800283a <memset+0xa>
 8002838:	4770      	bx	lr
 800283a:	7019      	strb	r1, [r3, #0]
 800283c:	3301      	adds	r3, #1
 800283e:	e7f9      	b.n	8002834 <memset+0x4>

08002840 <__libc_init_array>:
 8002840:	b570      	push	{r4, r5, r6, lr}
 8002842:	2600      	movs	r6, #0
 8002844:	4c0c      	ldr	r4, [pc, #48]	@ (8002878 <__libc_init_array+0x38>)
 8002846:	4d0d      	ldr	r5, [pc, #52]	@ (800287c <__libc_init_array+0x3c>)
 8002848:	1b64      	subs	r4, r4, r5
 800284a:	10a4      	asrs	r4, r4, #2
 800284c:	42a6      	cmp	r6, r4
 800284e:	d109      	bne.n	8002864 <__libc_init_array+0x24>
 8002850:	2600      	movs	r6, #0
 8002852:	f000 f819 	bl	8002888 <_init>
 8002856:	4c0a      	ldr	r4, [pc, #40]	@ (8002880 <__libc_init_array+0x40>)
 8002858:	4d0a      	ldr	r5, [pc, #40]	@ (8002884 <__libc_init_array+0x44>)
 800285a:	1b64      	subs	r4, r4, r5
 800285c:	10a4      	asrs	r4, r4, #2
 800285e:	42a6      	cmp	r6, r4
 8002860:	d105      	bne.n	800286e <__libc_init_array+0x2e>
 8002862:	bd70      	pop	{r4, r5, r6, pc}
 8002864:	00b3      	lsls	r3, r6, #2
 8002866:	58eb      	ldr	r3, [r5, r3]
 8002868:	4798      	blx	r3
 800286a:	3601      	adds	r6, #1
 800286c:	e7ee      	b.n	800284c <__libc_init_array+0xc>
 800286e:	00b3      	lsls	r3, r6, #2
 8002870:	58eb      	ldr	r3, [r5, r3]
 8002872:	4798      	blx	r3
 8002874:	3601      	adds	r6, #1
 8002876:	e7f2      	b.n	800285e <__libc_init_array+0x1e>
 8002878:	08002914 	.word	0x08002914
 800287c:	08002914 	.word	0x08002914
 8002880:	08002918 	.word	0x08002918
 8002884:	08002914 	.word	0x08002914

08002888 <_init>:
 8002888:	b5f8      	push	{r3, r4, r5, r6, r7, lr}
 800288a:	46c0      	nop			@ (mov r8, r8)
 800288c:	bcf8      	pop	{r3, r4, r5, r6, r7}
 800288e:	bc08      	pop	{r3}
 8002890:	469e      	mov	lr, r3
 8002892:	4770      	bx	lr

08002894 <_fini>:
 8002894:	b5f8      	push	{r3, r4, r5, r6, r7, lr}
 8002896:	46c0      	nop			@ (mov r8, r8)
 8002898:	bcf8      	pop	{r3, r4, r5, r6, r7}
 800289a:	bc08      	pop	{r3}
 800289c:	469e      	mov	lr, r3
 800289e:	4770      	bx	lr
